(dp0
S'mwse'
p1
(lp2
(lp3
F-19078.314290666956
aF-18977.393600169537
aF-19211.75821520636
aF-18998.869706897683
aF-19098.783273690457
aF-18871.994694414967
aF-19013.079418560323
aF-18954.00873370226
aF-18944.8063179023
aF-18976.71559366113
aF-19036.41817567269
aF-18947.75907898832
aF-19025.528019524954
aF-19014.52000531581
aF-19064.049426144276
aF-19022.919780796678
aF-19012.212727292383
aF-19077.045828555896
aF-19099.174603901967
aF-19067.199031162294
aasS'de'
p4
(lp5
(lp6
F-19766.26442891614
aF-19781.3244743779
aF-19840.701833682026
aF-18652.08909595993
aF-19924.260326971227
aF-19824.065525096124
aF-19782.413403861432
aF-19827.187979939463
aF-19210.592869798103
aF-19814.20603106769
aF-19829.71561168173
aF-19794.154069539003
aF-19828.072542403912
aF-19113.764553257748
aF-19950.74704270707
aF-19792.319845500886
aF-19878.719446423343
aF-19802.89225185371
aF-19855.95161674285
aF-19885.411054057153
aasS'sae'
p7
(lp8
(lp9
F-19708.377351467258
aF-19589.598763627077
aF-19822.407736661786
aF-19580.341146415463
aF-19722.488055739443
aF-19148.39478074403
aF-19584.218570374032
aF-19261.59122717385
aF-19317.048075776478
aF-19138.798754455183
aF-19469.98010478448
aF-19311.02669842824
aF-19377.19812088835
aF-19832.84093836749
aF-19759.32727733234
aF-19203.59913853027
aF-19580.333081548546
aF-19526.775648769777
aF-19387.020666666438
aF-19548.49715362102
aas.