(dp0
(S'dtlz3.20.8'
p1
S'gacdom'
p2
tp3
(lp4
(lp5
F-160196.47662942414
aF-160069.81829158208
aF-160101.84572304427
aF-160143.95025573703
aF-160129.35089340346
aF-160207.32652295154
aF-160126.6266233232
aF-160104.84960511682
aF-160170.76840695317
aF-160222.41094954862
aF-160241.85609977867
aF-160115.2397965517
aF-160165.47627860674
aF-160234.24889492424
aF-160129.26029184888
aF-160157.41888957654
aF-160129.80543510953
aF-160177.13124800095
aF-160163.3192734272
aF-160249.29763618452
aas(S'dtlz3.40.8'
p6
g2
tp7
(lp8
(lp9
F-160036.62368329562
aF-160048.3391176424
aF-160143.60861435704
aF-160098.34742857382
aF-160016.74161270756
aF-160053.8052642427
aF-160016.0654846908
aF-160014.12909940706
aF-185947.7610672967
aF-160160.69075779844
aF-160024.4566702167
aF-160032.96607368972
aF-160023.84951204766
aF-160008.6586009372
aF-160181.74663866783
aF-160026.1424515466
aF-160017.8099941472
aF-160012.03092014472
aF-160095.78845345814
aF-160037.57531887977
aas(S'dtlz1.10.8'
p10
g2
tp11
(lp12
(lp13
F-166258.4163886019
aF-166456.90478570265
aF-165703.72784564752
aF-166913.87820171763
aF-166738.15742459585
aF-166314.98619412864
aF-166016.09997988067
aF-166850.4610630381
aF-166078.15854085988
aF-165799.3970774236
aF-166561.34444606627
aF-166271.29279074908
aF-166173.28607517728
aF-166095.7432274981
aF-166985.2757130235
aF-166593.06294038123
aF-166477.78754447828
aF-166080.8263972828
aF-167156.94548259495
aF-165824.65836872085
aas(S'dtlz1.10.4'
p14
g2
tp15
(lp16
(lp17
F-80498.3979183597
aF-80499.9677970588
aF-80539.05826936975
aF-80595.37352977117
aF-80551.11664100972
aF-80816.21334227806
aF-80447.96060890745
aF-80501.86841195782
aF-80686.78410698831
aF-80597.142274691
aF-80762.92241508691
aF-80068.47806216001
aF-80600.46710260022
aF-80832.8287576626
aF-80509.04737359949
aF-80461.79053276006
aF-80478.52671334753
aF-80492.65985497284
aF-80412.08346269111
aF-80752.11255995807
aas(S'dtlz7.20.6'
p18
g2
tp19
(lp20
(lp21
F-128230.5403114786
aF-127728.34484457846
aF-128483.98615557243
aF-128059.21238877605
aF-128434.7463433125
aF-127270.59187649727
aF-127036.79257961303
aF-128337.28379857008
aF-127905.69035665692
aF-128139.62677601363
aF-127481.13288234606
aF-127500.15632475841
aF-127897.26666622846
aF-127329.99256383182
aF-128029.93337461412
aF-129038.5117194761
aF-127742.51779090082
aF-128400.29721794269
aF-128317.73247823877
aF-128337.09631257955
aas(S'dtlz1.40.2'
p22
g2
tp23
(lp24
(lp25
F-40562.50742279708
aF-40015.4275339002
aF-40013.55178965847
aF-40450.98375274902
aF-40030.50468734654
aF-40038.63451807427
aF-40007.70113264005
aF-50088.90437003015
aF-40011.90196360518
aF-40020.725294324875
aF-40033.595447944484
aF-42121.63954048785
aF-40011.919073476296
aF-40017.110142395555
aF-40009.393430334676
aF-40007.41014958215
aF-40006.89340682191
aF-40222.592063682234
aF-40016.65768955712
aF-40065.70103674973
aas(S'dtlz5.40.4'
p26
g2
tp27
(lp28
(lp29
F-79600.0
aF-79600.0
aF-79600.0
aF-79600.0
aF-79600.0
aF-79600.0
aF-79600.0
aF-79600.0
aF-79600.0
aF-79600.0
aF-79600.0
aF-79600.0
aF-79600.0
aF-79600.0
aF-79600.0
aF-79600.0
aF-79600.0
aF-79600.0
aF-79600.0
aF-79600.0
aas(S'dtlz1.40.6'
p30
g2
tp31
(lp32
(lp33
F-120002.09808351762
aF-120004.24834959013
aF-120002.25508385952
aF-120002.42442541775
aF-120008.59707995139
aF-120001.37013938357
aF-120016.82056185596
aF-120006.47153031925
aF-120007.72892825774
aF-120018.70068053542
aF-120011.66174789236
aF-120002.54331601608
aF-119997.9695424667
aF-120003.58047350156
aF-120009.78565639505
aF-119996.73699038595
aF-119991.03150884168
aF-120001.31007865674
aF-120095.09796972426
aF-119995.03697264673
aas(S'dtlz1.20.2'
p34
g2
tp35
(lp36
(lp37
F-40045.21577844183
aF-41489.505983113544
aF-40059.905577579055
aF-40029.258124693275
aF-40103.32802043659
aF-40030.6730665303
aF-40082.177070632024
aF-40197.798231284345
aF-40193.366191343666
aF-40058.41957799273
aF-40050.90885713429
aF-40337.84916573865
aF-40137.01266740049
aF-40171.983423838254
aF-40060.88297161448
aF-40155.976828971565
aF-40041.410404523485
aF-40151.8689607382
aF-40057.87175933721
aF-40101.35273526729
aas(S'dtlz7.40.4'
p38
g2
tp39
(lp40
(lp41
F-86951.71472391825
aF-86864.1112315666
aF-87549.00559358324
aF-86606.15480067788
aF-87580.06573080303
aF-86426.53940546913
aF-86810.02234167348
aF-86712.83590474504
aF-86793.79134665492
aF-87125.95168438453
aF-86497.0299115927
aF-86983.57556632231
aF-87071.08958282613
aF-87128.0059740263
aF-87374.06373591679
aF-86755.73653201456
aF-86141.06748477046
aF-87109.15764848476
aF-87919.04841215424
aF-86634.89963093573
aas(S'dtlz1.10.2'
p42
g2
tp43
(lp44
(lp45
F-40359.841744188445
aF-40538.7839510457
aF-40380.93242243878
aF-41048.01554661418
aF-40596.34865384002
aF-40603.03369840184
aF-40611.12321548594
aF-40542.28277172521
aF-40448.6295972042
aF-40358.4539925782
aF-40381.414680202506
aF-40280.08819942377
aF-40587.06827827766
aF-40424.4917250076
aF-40529.44660022251
aF-40262.39831551865
aF-40437.80204053205
aF-40490.704226076414
aF-40471.76177434326
aF-40373.224575418804
aas(S'dtlz5.40.8'
p46
g2
tp47
(lp48
(lp49
F-159200.0
aF-159200.0
aF-159200.0
aF-159200.0
aF-159200.0
aF-159200.0
aF-159200.0
aF-159200.0
aF-159200.0
aF-159200.0
aF-159200.0
aF-159200.0
aF-159200.0
aF-159200.0
aF-159200.0
aF-159200.0
aF-159200.0
aF-159200.0
aF-159200.0
aF-159200.0
aas(S'dtlz3.10.8'
p50
g2
tp51
(lp52
(lp53
F-163074.41545306362
aF-162072.21857104165
aF-161900.25660732356
aF-162382.2550019849
aF-162476.02139715166
aF-161905.54569540947
aF-161460.36895586207
aF-162318.14824049742
aF-162301.9553455156
aF-161816.9840053073
aF-161803.00927410106
aF-162112.4461029063
aF-162558.5834970788
aF-162519.6562999103
aF-161878.92691861978
aF-162903.90700679447
aF-162023.25364931716
aF-162392.73233301824
aF-162136.57612014684
aF-161705.57945299975
aas(S'dtlz3.40.6'
p54
g2
tp55
(lp56
(lp57
F-120005.43380767482
aF-120070.74985421723
aF-119995.42786663017
aF-120008.35382946784
aF-120001.6194517248
aF-120005.46149729354
aF-120013.1699836843
aF-120002.8179178291
aF-120002.47782125919
aF-120007.73732303057
aF-120050.30802083491
aF-120006.14468509887
aF-120000.6269169044
aF-120023.5687668548
aF-120004.1621908371
aF-120000.83900430503
aF-120010.84377408084
aF-120004.95283132362
aF-120000.71183187942
aF-120002.68207312327
aas(S'dtlz3.40.4'
p58
g2
tp59
(lp60
(lp61
F-80043.70086058236
aF-80463.82887857863
aF-80898.72859450198
aF-80033.21877016121
aF-80054.0744157412
aF-80157.02523561183
aF-80090.16311093379
aF-80019.50167921702
aF-80006.98912420034
aF-80009.56265442121
aF-80071.56790604629
aF-80004.68949783583
aF-80034.4211562818
aF-80061.52959557124
aF-80016.05270321609
aF-80008.24249201975
aF-80028.53011068753
aF-80011.89083650836
aF-80216.48763739502
aF-80243.57867476635
aas(S'dtlz1.40.8'
p62
g2
tp63
(lp64
(lp65
F-1154648630.3478158
aF-160005.79584092821
aF-160018.69830591316
aF-160120.91692401734
aF-160010.69276216434
aF-160004.18726774768
aF-160007.74943890917
aF-159996.7364758621
aF-160011.05814852045
aF-160231.7313029431
aF-160020.58730937826
aF-160042.54545621134
aF-160010.02260574608
aF-160008.55121522918
aF-160003.68168329028
aF-160035.17832963285
aF-160041.4723587523
aF-160003.46468079835
aF-160029.87683913374
aF-160014.1622439504
aas(S'dtlz3.40.2'
p66
g2
tp67
(lp68
(lp69
F-40001.04818225815
aF-40024.54768086345
aF-39999.88475451382
aF-40002.05874926106
aF-40002.18367558875
aF-40001.46937560276
aF-40008.68278251074
aF-40000.929333871376
aF-40005.58244402856
aF-40000.73434584912
aF-40001.55858423452
aF-40002.866024855684
aF-40002.63643160187
aF-40001.24150751173
aF-39998.92842860879
aF-39998.627516030334
aF-40056.70980480321
aF-40002.75555660477
aF-39998.43012223588
aF-40000.98653601883
aas(S'dtlz7.20.4'
p70
g2
tp71
(lp72
(lp73
F-86795.8361151781
aF-86671.28153593659
aF-87385.91340668885
aF-86374.29530098454
aF-86930.16397295844
aF-86884.59641528982
aF-87444.02528253311
aF-86603.43954778933
aF-87018.25846405842
aF-87420.61369196464
aF-87401.0934890868
aF-86585.22817691647
aF-86473.36492868986
aF-87461.77388981737
aF-86494.4153216713
aF-86815.09221948987
aF-87221.78090323193
aF-86422.4129387537
aF-87627.65899895714
aF-86555.29845138568
aas(S'dtlz5.20.8'
p74
g2
tp75
(lp76
(lp77
F-159200.0
aF-159200.0
aF-159200.0
aF-159200.0
aF-159200.0
aF-159200.0
aF-159200.0
aF-159200.0
aF-159200.0
aF-159200.0
aF-159200.0
aF-159200.0
aF-159200.0
aF-159200.0
aF-159200.0
aF-159200.0
aF-159200.0
aF-159200.0
aF-159200.0
aF-159200.0
aas(S'dtlz5.20.4'
p78
g2
tp79
(lp80
(lp81
F-79600.0
aF-79600.0
aF-79600.0
aF-79600.0
aF-79600.0
aF-79600.0
aF-79600.0
aF-79600.0
aF-79600.0
aF-79600.0
aF-79600.0
aF-79600.0
aF-79600.0
aF-79600.0
aF-79600.0
aF-79600.0
aF-79600.0
aF-79600.0
aF-79600.0
aF-79600.0
aas(S'dtlz7.10.4'
p82
g2
tp83
(lp84
(lp85
F-89883.6737048773
aF-90044.25967812465
aF-90220.8522470983
aF-90550.22054297406
aF-90351.41386353891
aF-89796.66152262512
aF-91126.32838404427
aF-90658.69136158362
aF-89989.45782108257
aF-89718.00900914917
aF-89991.96359224629
aF-90418.60730232499
aF-89832.00597592517
aF-89977.45882321555
aF-90260.72816540264
aF-89631.83964284198
aF-89616.10998205243
aF-89538.6743923521
aF-89459.28192365356
aF-90301.90978266251
aas(S'dtlz5.10.6'
p86
g2
tp87
(lp88
(lp89
F-119400.0
aF-119400.0
aF-119400.0
aF-119400.0
aF-119400.0
aF-119400.0
aF-119400.0
aF-119400.0
aF-119400.0
aF-119400.0
aF-119400.0
aF-119400.0
aF-118800.0
aF-119400.0
aF-119400.0
aF-119400.0
aF-119400.0
aF-119400.0
aF-119400.0
aF-119400.0
aas(S'dtlz1.40.4'
p90
g2
tp91
(lp92
(lp93
F-80682.74287861613
aF-80054.37538655527
aF-80245.55301189565
aF-80168.75281554335
aF-80172.05822326214
aF-80130.32559032283
aF-83044.40527589511
aF-80342.9982864608
aF-80017.76194025834
aF-80023.36996108192
aF-80046.0350249909
aF-80062.56039011644
aF-80078.17388741435
aF-80056.61248256377
aF-81140.29800941015
aF-191524.20168082483
aF-80118.83460457408
aF-80018.42715445189
aF-1921498.1151937493
aF-80007.70746801596
aas(S'dtlz3.10.6'
p94
g2
tp95
(lp96
(lp97
F-122725.389732204
aF-122643.45792515395
aF-122712.80321638517
aF-122138.86568488226
aF-122252.68969602737
aF-122483.59980238222
aF-122709.20523041417
aF-122351.17459784095
aF-123261.55815325129
aF-122952.09981428084
aF-122358.17961281828
aF-122010.64022995601
aF-122178.53270682259
aF-121958.46598369382
aF-121738.36192410087
aF-122109.36194969284
aF-122281.8964259623
aF-122125.6806212316
aF-122814.17584341831
aF-122397.65255808488
aas(S'dtlz7.40.6'
p98
g2
tp99
(lp100
(lp101
F-127977.84580071137
aF-127561.64015732861
aF-128484.55407652954
aF-127818.1588965817
aF-127952.68828344432
aF-127831.77687064714
aF-128169.67994885352
aF-127384.77375099718
aF-128583.84349909639
aF-127515.33318502626
aF-127313.17721569976
aF-127373.18298547449
aF-128016.34011565881
aF-127061.24872609807
aF-128253.12350971039
aF-128393.09714701958
aF-127899.82292209429
aF-128649.30364687432
aF-127849.29739777184
aF-127738.84619668633
aas(S'dtlz5.40.2'
p102
g2
tp103
(lp104
(lp105
F-39800.0
aF-39800.0
aF-39800.0
aF-39800.0
aF-39800.0
aF-39800.0
aF-39800.0
aF-39800.0
aF-39800.0
aF-39800.0
aF-39800.0
aF-39800.0
aF-39800.0
aF-39800.0
aF-39800.0
aF-39800.0
aF-39800.0
aF-39800.0
aF-39800.0
aF-39800.0
aas(S'dtlz3.20.6'
p106
g2
tp107
(lp108
(lp109
F-120690.22192131086
aF-120360.72023260816
aF-120680.34482372718
aF-120234.58437323096
aF-120359.66484341768
aF-120327.48411362412
aF-120868.06746568295
aF-120302.41612825778
aF-120365.25984166798
aF-120605.95382211651
aF-120671.24483859369
aF-120441.34251688664
aF-120390.43317355389
aF-120500.93242121956
aF-120439.9787146307
aF-120394.66743695781
aF-120657.7009872867
aF-120509.09080920686
aF-120261.31940933665
aF-121426.25719788157
aas(S'dtlz5.20.2'
p110
g2
tp111
(lp112
(lp113
F-39800.0
aF-39800.0
aF-39800.0
aF-39800.0
aF-39800.0
aF-39800.0
aF-39800.0
aF-39800.0
aF-39800.0
aF-39800.0
aF-39800.0
aF-39800.0
aF-39800.0
aF-39800.0
aF-39800.0
aF-39800.0
aF-39800.0
aF-39800.0
aF-39800.0
aF-39800.0
aas(S'dtlz3.10.2'
p114
g2
tp115
(lp116
(lp117
F-40654.78721214089
aF-40746.178285315036
aF-40729.319506969034
aF-40686.93002691702
aF-40654.94829650589
aF-41277.37496855765
aF-40943.346158916385
aF-40847.97320280566
aF-40994.008954927245
aF-40896.57858548884
aF-40635.022606710336
aF-40594.534044025946
aF-41048.31377133328
aF-41204.122108853844
aF-41037.788307778545
aF-41316.45692059124
aF-40984.58352393014
aF-41100.49393581234
aF-40714.08797268299
aF-40826.997768868
aas(S'dtlz7.40.2'
p118
g2
tp119
(lp120
(lp121
F-44263.8910250022
aF-44275.64980118726
aF-44605.59551113881
aF-43987.16753279839
aF-44346.273779451876
aF-44221.52991601115
aF-44440.654755415904
aF-44129.83644138192
aF-44288.255481558925
aF-44286.21216665875
aF-44975.3680791074
aF-44235.500299194675
aF-43909.406377702515
aF-44963.80477200491
aF-44347.41318056851
aF-44572.15134722503
aF-44465.823317238865
aF-44240.15718212238
aF-44547.04023212673
aF-43914.60497853823
aas(S'dtlz5.10.4'
p122
g2
tp123
(lp124
(lp125
F-79600.0
aF-79600.0
aF-79600.0
aF-79600.0
aF-79600.0
aF-79600.0
aF-79600.0
aF-79600.0
aF-79600.0
aF-79600.0
aF-79600.0
aF-79600.0
aF-79600.0
aF-79600.0
aF-79600.0
aF-79600.0
aF-79600.0
aF-79600.0
aF-79600.0
aF-79600.0
aas(S'dtlz1.20.6'
p126
g2
tp127
(lp128
(lp129
F-120067.60560780346
aF-120128.65049119563
aF-120024.72654413285
aF-120136.9134346384
aF-120041.14459398009
aF-120025.84783450449
aF-120056.33885542628
aF-120058.91568900083
aF-120190.1245681311
aF-120037.99286988255
aF-120030.73543415489
aF-120092.64198912393
aF-120036.47478772183
aF-120117.88954293556
aF-120085.5273281516
aF-120100.42055297809
aF-120019.34468735821
aF-120025.59396113064
aF-120039.86239470268
aF-120035.0651789355
aas(S'dtlz3.20.2'
p130
g2
tp131
(lp132
(lp133
F-40105.73804086771
aF-40202.109253587405
aF-40963.88464498662
aF-40290.40750721763
aF-40165.59035563455
aF-40305.28676847236
aF-40581.91886944558
aF-40267.66498901897
aF-42167.8392303188
aF-40125.22633924016
aF-40050.621946706815
aF-40638.740541138635
aF-40115.46202688579
aF-40106.69193812601
aF-40096.384581875485
aF-40154.42927731056
aF-40137.23996812548
aF-40379.067282702905
aF-40073.32301358177
aF-40147.85410586313
aas(S'dtlz5.20.6'
p134
g2
tp135
(lp136
(lp137
F-119400.0
aF-119400.0
aF-119400.0
aF-119400.0
aF-119400.0
aF-119400.0
aF-119400.0
aF-119400.0
aF-119400.0
aF-119400.0
aF-119400.0
aF-119400.0
aF-119400.0
aF-119400.0
aF-119400.0
aF-119400.0
aF-119400.0
aF-119400.0
aF-119400.0
aF-119400.0
aas(S'dtlz7.10.2'
p138
g2
tp139
(lp140
(lp141
F-50603.58162836113
aF-51385.19812914251
aF-51626.760444214524
aF-51081.268570413646
aF-51093.17045068993
aF-50811.81064603222
aF-51983.456099426774
aF-51962.390757795154
aF-50787.61034951633
aF-51349.52178934188
aF-51828.91049169967
aF-51266.18749469419
aF-51775.286077828096
aF-50963.870971145465
aF-51324.921475291536
aF-51064.165754835674
aF-50573.40076432707
aF-51282.50229885602
aF-51093.39677071258
aF-50897.37266732489
aas(S'dtlz7.20.2'
p142
g2
tp143
(lp144
(lp145
F-44756.371131057436
aF-44657.66264108125
aF-44277.923863410964
aF-44864.768474171375
aF-44433.18468290514
aF-44678.09866392514
aF-43915.134849531496
aF-44456.236445546645
aF-44112.02784939221
aF-44434.41684042596
aF-44467.26651290517
aF-44629.386123604585
aF-44892.94139882864
aF-44609.5654419295
aF-43884.43412294113
aF-44208.236632401546
aF-44446.63818940268
aF-44646.40039617584
aF-44299.75261366127
aF-44221.917963820866
aas(S'dtlz1.10.6'
p146
g2
tp147
(lp148
(lp149
F-121195.83398068497
aF-121217.43923388535
aF-121341.44231405444
aF-121245.3673827026
aF-121170.61424967436
aF-121141.09645826396
aF-121022.0449632223
aF-121138.4729170703
aF-121029.03414584871
aF-120947.49692673398
aF-121446.3086100993
aF-121376.4906738333
aF-121750.9377909574
aF-121168.5670461098
aF-121352.56011410966
aF-121430.17250016118
aF-121140.2897154693
aF-121127.73372633525
aF-121137.2930317376
aF-121591.67379968888
aas(S'dtlz3.10.4'
p150
g2
tp151
(lp152
(lp153
F-81055.64039449814
aF-81382.4398379699
aF-81493.82687920282
aF-81547.2913373205
aF-81159.66666602893
aF-81060.67335642924
aF-81461.04666543497
aF-81312.10398256531
aF-81678.11749340603
aF-81941.00441045068
aF-81433.10954659843
aF-81601.4271315989
aF-81016.49885100691
aF-81432.28697175068
aF-81043.84698234497
aF-80916.90296979649
aF-81003.05334964067
aF-81287.58243718854
aF-81235.2294246438
aF-81096.84704011302
aas(S'dtlz5.10.8'
p154
g2
tp155
(lp156
(lp157
F-164918.54905597883
aF-164770.20645051028
aF-165030.51854736733
aF-164535.24083932483
aF-165114.07419228548
aF-164843.27533980855
aF-164864.16175911285
aF-164800.0323662214
aF-164805.02289539526
aF-165112.3386813932
aF-163920.3375057707
aF-164169.0586010646
aF-164717.0287098117
aF-164753.1833778316
aF-164840.08589959508
aF-164733.44334061182
aF-164707.3954842487
aF-164874.0957511604
aF-164718.81204635242
aF-164517.07132447924
aas(S'dtlz7.10.6'
p158
g2
tp159
(lp160
(lp161
F-130461.98075966125
aF-130310.45550957568
aF-130715.13674600958
aF-129012.03195982588
aF-130370.5237591778
aF-129208.49106415168
aF-130083.11132970212
aF-129519.66488346663
aF-129633.17703784413
aF-130031.24379704369
aF-129368.01611090163
aF-130859.39190554545
aF-130215.13257759495
aF-129251.45975665175
aF-128990.32900325494
aF-129318.04182839322
aF-130041.8414844974
aF-130720.94385868507
aF-129989.72006638238
aF-129889.35573941968
aas(S'dtlz7.40.8'
p162
g2
tp163
(lp164
(lp165
F-168370.07027954858
aF-168500.77468263914
aF-167540.78814447226
aF-168940.90058175792
aF-169412.90370626195
aF-169900.2623653649
aF-168462.93385277092
aF-167368.7938004016
aF-168476.99326279506
aF-168386.86693731
aF-168441.77717902238
aF-168437.48154628667
aF-168238.6492585327
aF-168299.36991621714
aF-168239.95646265364
aF-168244.7111128567
aF-168434.08779838556
aF-168579.01359565722
aF-168534.1696895357
aF-168266.65646605863
aas(S'dtlz3.20.4'
p166
g2
tp167
(lp168
(lp169
F-80080.76652615945
aF-80134.8241182137
aF-80200.89100054598
aF-79782.54860686236
aF-80085.72308917549
aF-80176.58817037732
aF-80100.71347880963
aF-80165.23694065824
aF-80340.69558993987
aF-80160.74124063831
aF-80134.34622672062
aF-80152.49582366277
aF-80154.17721565117
aF-80399.31231937505
aF-80190.6590662441
aF-80139.66350838843
aF-80064.22581118328
aF-80135.94404410057
aF-80139.25468137402
aF-80166.38738681066
aas(S'dtlz5.10.2'
p170
g2
tp171
(lp172
(lp173
F-39800.0
aF-39800.0
aF-39800.0
aF-39800.0
aF-39800.0
aF-39800.0
aF-39800.0
aF-39800.0
aF-39600.0
aF-39800.0
aF-39800.0
aF-39800.0
aF-39800.0
aF-39800.0
aF-39800.0
aF-39800.0
aF-39800.0
aF-39800.0
aF-39800.0
aF-39800.0
aas(S'dtlz1.20.4'
p174
g2
tp175
(lp176
(lp177
F-80039.40350692047
aF-80063.02523674956
aF-80072.79682954443
aF-80093.0676022092
aF-80185.84157605171
aF-80310.13574604498
aF-80206.88998760364
aF-80088.24489199715
aF-80089.54439946305
aF-80029.54270507998
aF-80044.25809602556
aF-80027.10882793808
aF-80126.52063944018
aF-80047.55677553474
aF-80080.77369004692
aF-80034.54053190205
aF-80068.80170415925
aF-80043.03240904656
aF-80035.47121600567
aF-80087.95932651276
aas(S'dtlz7.10.8'
p178
g2
tp179
(lp180
(lp181
F-170887.90420007127
aF-169926.10162981792
aF-170201.98239338864
aF-169404.5203346723
aF-170300.27494211416
aF-170665.62175937652
aF-170465.67718914672
aF-169765.7771170535
aF-170804.51550617634
aF-170169.8142525137
aF-169860.55856484824
aF-170341.82857769745
aF-170167.84843743083
aF-169285.25116491906
aF-170062.7273032685
aF-169749.82298633974
aF-170112.91442182942
aF-169463.7586432915
aF-169920.48269035658
aF-170201.02324660023
aas(S'dtlz1.20.8'
p182
g2
tp183
(lp184
(lp185
F-160235.50994513032
aF-160144.75020724235
aF-160207.69654521314
aF-160089.47838216374
aF-160209.4633907817
aF-160104.78089270482
aF-160401.55665006317
aF-160099.1164074422
aF-160156.25690422897
aF-160223.94311635447
aF-160151.62343369424
aF-160270.47440689147
aF-160157.30961986215
aF-160218.9840179383
aF-160162.53617167065
aF-160243.9606862882
aF-160097.37422977635
aF-160507.7462691289
aF-160638.7641111845
aF-160292.23262588962
aas(S'dtlz7.20.8'
p186
g2
tp187
(lp188
(lp189
F-169533.85326731458
aF-168341.24252242528
aF-168328.07253249633
aF-168337.4298750994
aF-167544.13787147895
aF-168557.81507430953
aF-168334.841875991
aF-168675.453993197
aF-169355.20637811272
aF-169432.21578533546
aF-169030.25686878627
aF-168400.29440173128
aF-168474.79435891993
aF-168529.9574898934
aF-168958.97730083647
aF-168402.86157557476
aF-167820.7616105725
aF-169336.90204532753
aF-168508.74694500637
aF-168536.96771646233
aas(S'dtlz5.40.6'
p190
g2
tp191
(lp192
(lp193
F-119400.0
aF-119400.0
aF-119400.0
aF-119400.0
aF-119400.0
aF-119400.0
aF-119400.0
aF-119400.0
aF-119400.0
aF-119400.0
aF-119400.0
aF-119400.0
aF-119400.0
aF-119400.0
aF-119400.0
aF-119400.0
aF-119400.0
aF-119400.0
aF-119400.0
aF-119400.0
aas.