(lp0
(F0.9679393281401203
F0.960054342000066
F0.45525504322113897
F0.04081747468817731
F0.9963929434335576
F0.865700597377904
F0.5251138638497572
F0.25649071238178667
F0.5884453294064833
F0.5434327844988209
F0.7891184677706621
F0.45004732327932717
F0.658490524588065
F0.6014998655254771
F0.6768093757850107
F0.7221434507855276
F0.742954809951499
F0.6471629478616431
F0.32444336229158766
F0.4168191371317367
F0.1993555262090868
F0.47969220704588966
F0.871867308588355
F0.9173287633059011
F0.4310516634075362
F0.8389937311207621
F0.4577796980881912
F0.930471814164879
F0.0567714485403612
F0.9030889570969185
F0.18307076508831344
F0.5608935304563887
F0.41296146312335236
F0.18007487109429843
F0.39034919702254944
F0.5080381742890658
F0.8624401067587741
F0.018819474871682118
F0.7042537168624683
F0.6555800877079971
tp1
a(F0.6277053629189128
F0.14761425145319618
F0.7456308846568445
F0.9583544991908953
F0.8435283403694147
F0.6293316430524392
F0.27789060114368547
F0.9580770107269873
F0.39348644673550137
F0.5751322312945357
F0.5986218368335565
F0.7726553436171447
F0.6463373644343963
F0.5155796367995141
F0.39427114466982394
F0.7781427966836748
F0.7400261192156001
F0.4443777786130425
F0.19857821411729193
F0.8858361034888201
F0.01564567165638031
F0.8698417568642846
F0.6863676755798561
F0.9326996263622875
F0.6489524142844015
F0.3888234172908047
F0.024917403441047314
F0.20194189993438227
F0.18282465604363862
F0.9013335151350648
F0.9038021607532973
F0.6408921710667054
F0.3427023451510397
F0.3594172400677973
F0.42732879095901233
F0.4508213240361383
F0.3049074458403098
F0.03180940811848687
F0.18039207347989517
F0.9328757912908705
tp2
a(F0.06969062750375743
F0.7875298572747931
F0.04436859172924246
F0.8201325044306301
F0.7053432945473945
F0.16740348595302257
F0.5081050198603099
F0.21316898446110244
F0.8016383009493061
F0.7480586729787628
F0.602377525088094
F0.46996317080165695
F0.7149620027927331
F0.10088701278605305
F0.3374155148409559
F0.9044600219964984
F0.7176341717357986
F0.08249847612153738
F0.5673334984287796
F0.41482900570273473
F0.14344725644563372
F0.49908776604684657
F0.9695261874048986
F0.8159169863020999
F0.8650648593450461
F0.15860619581440594
F0.3772023036413972
F0.5095941147876777
F0.13942416334742358
F0.15661318894753085
F0.9867206321785866
F0.3715579175320042
F0.7291679553496586
F0.12359874006243265
F0.03378787148567075
F0.8440828360301994
F0.6281139683982395
F0.3499549026352602
F2.6679916803051817e-05
F0.8222313308064215
tp3
a(F0.12810468027217392
F0.9526436123291806
F0.07359162481032488
F0.2579018558482298
F0.6431486368148926
F0.9326776984143992
F0.4343855971569679
F0.12182240804585631
F0.45728186061670995
F0.8369905354773237
F0.8617140237603325
F0.006052831264775627
F0.39449674513734856
F0.26392983409775206
F0.6282613206646289
F0.4313169943994748
F0.43505714660817796
F0.010777332993236799
F0.10184223974704154
F0.4914798124876688
F0.9227709972841182
F0.39139657187532184
F0.2727334296633189
F0.3331670764104211
F0.743287707709888
F0.7885349990967143
F0.46828051801701354
F0.42944377666457767
F0.4263809884068248
F0.7886566386871929
F0.175722098866969
F0.30580796396600596
F0.8647984525600227
F0.5073162662535644
F0.8727026643928674
F0.057348430292473274
F0.4442508327932001
F0.5502580510085817
F0.408387419970739
F0.24944279560973937
tp4
a(F0.3557739071740269
F0.006591758918502388
F0.8242436204731168
F0.40880279973393996
F0.8636412837929504
F0.20635191391570906
F0.5829296667990082
F0.021824087016695914
F0.4088438728902303
F0.8215859570086761
F0.6462682660269946
F0.9577858431641604
F0.09268006659085115
F0.7570634423031974
F0.7197905169902897
F0.8014456819782367
F0.7687407624295851
F0.22486519890059542
F0.03903280307897239
F0.9109045638432002
F0.7296593198874632
F0.9320929887514211
F0.2646041124649563
F0.3062798203296
F0.28130198348882507
F0.573629302187383
F0.8350985891073002
F0.5501912742232075
F0.5898777398232008
F0.8807732042546371
F0.22853092673854059
F0.5423016975799764
F0.19932693548120828
F0.1250259929128954
F0.7134721944190758
F0.8542368546986606
F0.07569770704383871
F0.06984481737067916
F0.5640109374922624
F0.40262968846825553
tp5
a(F0.06326052363291212
F0.0993070904512442
F0.9426774910694806
F0.637027242296638
F0.45752372201336244
F0.20739098745666407
F0.36355922835618726
F0.365267967752943
F0.9375623200920691
F0.5231149604495848
F0.8471955296476555
F0.6527415256678708
F0.0527880477801429
F0.8196422201520877
F0.5811449322328667
F0.6055744762958986
F0.6248986654979384
F0.30029421205818085
F0.07778197040307178
F0.14234801460452862
F0.5433262015601796
F0.944775103423939
F0.266412358989904
F0.6761094477456109
F0.9902299251198283
F0.040429574968178894
F0.7054018547647156
F0.9427554040584394
F0.40068546558688645
F0.8054558195846636
F0.13289549709390558
F0.07810053568957598
F0.1323163472846558
F0.34706539990786534
F0.023302113881936926
F0.9733786840023545
F0.34097460501580545
F0.042207423358374574
F0.6345782367936557
F0.7269359502501263
tp6
a(F0.19697332545540847
F0.37438224110941776
F0.7244892380677397
F0.02415123698416044
F0.4459896552578849
F0.8384327312808416
F0.579473885057917
F0.24794258926113577
F0.8411340714703122
F0.7797105928591587
F0.2035550766700277
F0.1291257276676755
F0.5698500008012614
F0.12789530590630083
F0.8218795341648046
F0.8392455469073372
F0.958619779252205
F0.19992140001641379
F0.48714820329203146
F0.6946197869461886
F0.5987796985607032
F0.16729423403205534
F0.27305611616938597
F0.677834166792737
F0.30399632429433276
F0.34255105491303806
F0.8475464484157924
F0.4517812549129375
F0.5425520500845188
F0.33588136116291234
F0.6351454992073814
F0.27598663970571247
F0.16108154788588047
F0.9796955614833193
F0.0058249331054244236
F0.6791783873553836
F0.1767170459858851
F0.46081560423512424
F0.32963538405687787
F0.5567162815478469
tp7
a(F0.1820287077183116
F0.4884223285343384
F0.3709055662161883
F0.9016631333616096
F0.7427503935438151
F0.7991416504139255
F0.6665250847048524
F0.060408841149202086
F0.6647142783998975
F0.3380900805278527
F0.7244266412087034
F0.9279492270610915
F0.7534654159432661
F0.023386404484322387
F0.519775092473954
F0.47393932348678225
F0.4053959386190108
F0.10943030270067966
F0.15359515632524656
F0.9705348966011887
F0.07396854821540966
F0.1288324597975573
F0.37260916352893825
F0.38471335368766413
F0.7253743699612086
F0.9302027692490211
F0.9749085867181003
F0.7510540285035302
F0.022275346908032678
F0.02734589788602393
F0.09655906250609236
F0.8937959861326873
F0.32050264172959164
F0.7297788882772961
F0.14015762714247293
F0.25394029390296824
F0.5829659759879883
F0.029856398221684066
F0.019387442533889243
F0.07796976372639397
tp8
a(F0.45731586503023713
F0.9635211942940408
F0.012372303298923581
F0.942409332443959
F0.474706682008448
F0.9804553908152972
F0.7342709668333549
F0.5307502748351351
F0.22716280168041114
F0.25829717995964463
F0.4578139353845748
F0.18710836134219377
F0.003680864855827304
F0.30447518819975394
F0.5559676977469127
F0.9880924176896049
F0.9397935758119728
F0.004599197509553621
F0.5954130187928508
F0.9030551524389755
F0.8712939007298535
F0.881331496286396
F0.9592469046794596
F0.619487701931938
F0.9013178518846975
F0.04438542954321456
F0.9988061679619865
F0.7746398936008783
F0.6739086297568446
F0.8080239875177102
F0.5548386542359489
F0.7555265136019964
F0.8253213759187841
F0.9546234621747113
F0.5725562108955763
F0.6074659227386803
F0.37342642350890354
F0.03694353881070733
F0.24750520000923382
F0.2004865981663586
tp9
a(F0.5529232166419603
F0.45453407209967855
F0.5748855209762246
F0.7730570214873563
F0.032493394269959563
F0.2163583505292891
F0.9817172343804443
F0.767309161112944
F0.043482780549977784
F0.4250092678964472
F0.017358743260990406
F0.02557305042434488
F0.7141705907742383
F0.7578520989557087
F0.6168456670127973
F0.24072377109205056
F0.5622424058590741
F0.6985833121334811
F0.9360042840404681
F0.357349620092278
F0.12776385999746176
F0.09766352070010342
F0.11681745365908136
F0.4788135726578753
F0.13308844747582915
F0.906494065004043
F0.1434502290863967
F0.05470042280029197
F0.2978624968976977
F0.6019191011030278
F0.4153792608068484
F0.11933579081513468
F0.7112129094131976
F0.339987155369167
F0.9184864598817395
F0.19229268518509857
F0.07153492932847605
F0.9073582693032449
F0.646757704034617
F0.25990614518026633
tp10
a(F0.536477452187171
F0.5379902098180852
F0.8392413156402879
F0.2150751866495485
F0.3125203515145103
F0.7781239828567498
F0.7318393971601114
F0.9112265402510037
F0.602211158040953
F0.22718579677004092
F0.515787247798849
F0.3181721634645024
F0.7783065907838695
F0.0071306396827430785
F0.5839360719152787
F0.37253407675315764
F0.01812447862074118
F0.4155091095762894
F0.0119650693908111
F0.20007117006570552
F0.5057468872240009
F0.8996281740306589
F0.44835428083071016
F0.34891699692684885
F0.7248746429575608
F0.6496614238575522
F0.8872527807742653
F0.6778449247496373
F0.23909110740144435
F0.406951277023643
F0.23640192470487442
F0.9024254007788056
F0.9619415057864128
F0.14712725532926585
F0.2430406786137369
F0.1378909961678757
F0.8806539356080192
F0.8257887189530744
F0.002107074318501989
F0.862145111276023
tp11
a(F0.9347237185333725
F0.7266684236800294
F0.5204236550496752
F0.43585637065081884
F0.9926301372113597
F0.11953794879461233
F0.6757343151916112
F0.13580791113885293
F0.014463216127149514
F0.6413434927410512
F0.26705751057670746
F0.3166600301556013
F0.3315888620613189
F0.24976038950352686
F0.1369099028364119
F0.4853913253139148
F0.8150156221690132
F0.9386834610922957
F0.5436315853564083
F0.9000923759830826
F0.04650994503745465
F0.6042924832683435
F0.841553021606217
F0.45704902082520793
F0.36983444341120053
F0.046015974060565235
F0.6445882938944157
F0.5838556835058389
F0.6399118368331791
F0.6925888519062754
F0.6068569908375587
F0.2928016970151197
F0.26839261831853456
F0.6358781037317466
F0.7823481475066968
F0.668849271521016
F0.20430550890538168
F0.8346125560575643
F0.9107995937550778
F0.6568638242161544
tp12
a(F0.645219632376165
F0.8615148115188377
F0.5453259650521418
F0.12340998766295697
F0.7595271541241899
F0.9090801856794544
F0.01332106650447673
F0.32639335713567896
F0.4955575894036689
F0.8513617710862795
F0.46387215987734653
F0.00927247340121351
F0.04186716101788501
F0.1788906718963703
F0.1429929496271688
F0.9285365157653194
F0.13074718283627274
F0.5913695992562893
F0.5173294350144944
F0.05379481013249943
F0.8448204108067977
F0.6487872944943115
F0.42334478687895916
F0.2931822656840657
F0.4745362224899936
F0.0275842100324325
F0.8363493404934998
F0.5728681450996843
F0.05132457586192796
F0.19913721627990777
F0.8755752443483448
F0.26540776430121993
F0.10564105645565047
F0.3201285779560096
F0.5148895240661525
F0.21998273791130796
F0.6723862880911173
F0.7862907486692445
F0.9134059051736426
F0.06512316857110378
tp13
a(F0.7722668348270589
F0.2985826998163327
F0.12094999454332223
F0.8008669325303263
F0.8462198380120833
F0.6556636708717225
F0.6801391174328107
F0.9490351611266171
F0.2534894087043086
F0.22219062910706766
F0.05174092116173101
F0.5086039973461514
F0.38773471905334633
F0.19000563667452974
F0.8007044301528913
F0.442506004915619
F0.6871904648395986
F0.47642109723398685
F0.1712941671589614
F0.32485766356390255
F0.07510441257917688
F0.9745729120648823
F0.7220421419946991
F0.5997053286186417
F0.24431160975490707
F0.6839580081211385
F0.22745740479440157
F0.38552066611716695
F0.6717309461896347
F0.24657212973634357
F0.5948029837297392
F0.6120445873010119
F0.7286761226873395
F0.7545263608495055
F0.925807793322161
F0.7876700918738729
F0.24594719881484128
F0.12666226138539116
F0.14766275363454673
F0.1279788935505285
tp14
a(F0.022046905894201663
F0.7176123031294361
F0.8096189160390134
F0.48654625754835
F0.19386171411741404
F0.5088633051659084
F0.12572194132019276
F0.05947919884571318
F0.36911127028426016
F0.13147047263919476
F0.4116515647182939
F0.5149344919328617
F0.850723317612792
F0.30317180882079264
F0.5935751520095304
F0.013924598990523895
F0.7132087298670892
F0.8312312553296339
F0.46235955996387545
F0.3925106642652306
F0.8551873801959264
F0.708497051972495
F0.6132693903601628
F0.06571860894518378
F0.7563171107919388
F0.3100711091593723
F0.5035978053875518
F0.6475568474742562
F0.11252805490268247
F0.7572098087857032
F0.4149787944498182
F0.07708336018192352
F0.9763958551548664
F0.4357763148828898
F0.7083777018124153
F0.767206276436497
F0.6553331945008561
F0.9085124171089999
F0.8672445019019974
F0.38916835043069864
tp15
a(F0.6807283784084075
F0.24907764988678982
F0.472516457533407
F0.9808137584404809
F0.6984380768933094
F0.27375118013663047
F0.6202380741433885
F0.9618262861249258
F0.5198839592104512
F0.8534501846648186
F0.012987558094441964
F0.10839241038182146
F0.7298015280355349
F0.11124980586125555
F0.5462404649541898
F0.6998882222371979
F0.9796004127312945
F0.9339548569159577
F0.48322900873023067
F0.3680914318446076
F0.6267989928311044
F0.6693738325670562
F0.29345587083699987
F0.46812265152264987
F0.7751332969179632
F0.5755606719703155
F0.9766509754422155
F0.4344374328319789
F0.3050287924775462
F0.362910336640316
F0.2614681879930496
F0.2713904038082541
F0.9705933971528913
F0.6704244805059373
F0.11376746036857377
F0.793361758127964
F0.5066326427512611
F0.9864559550413632
F0.20647301706268517
F0.7633286811683999
tp16
a(F0.22073074280081106
F0.9594642993252184
F0.30606301465324315
F0.716870067114194
F0.4367795096124064
F0.966666218530997
F0.7539942657951735
F0.26872935226335204
F0.6320629968403294
F0.5082281324808677
F0.8375755606043267
F0.2455395549362971
F0.3394192078446705
F0.29953768190535746
F0.7270005735355919
F0.11150167624703555
F0.5060715178537195
F0.8497630456667278
F0.18958990594064595
F0.12160938521004094
F0.2507570986739216
F0.882868961658481
F0.824619349622436
F0.3373674104387072
F0.7609063245091798
F0.4977848948483232
F0.7736209909385341
F0.07960139850926962
F0.2495646628703888
F0.9780716600384203
F0.10458445200346733
F0.4739231532604432
F0.041723347642177666
F0.10791987159892469
F0.4963488427629599
F0.2298222518262789
F0.475656357901292
F0.505722273198272
F0.764580985145566
F0.41956814526395037
tp17
a(F0.7417179759043179
F0.9056584592429544
F0.7108563001449488
F0.20245768691676091
F0.9343857031892242
F0.07243151948592086
F0.09271607892758571
F0.8742304853352201
F0.5211402658172276
F0.5142112714727296
F0.8030457028919957
F0.9620367555530622
F0.9870530878593039
F0.9695075608552486
F0.8103093822872521
F0.2645565285350929
F0.1564543439292695
F0.8960111294121654
F0.1099568483737341
F0.48397490328928827
F0.07921128151641055
F0.9185678218987436
F0.14584799150352412
F0.507814280773477
F0.3960400184359858
F0.8493021024359705
F0.3475563135488382
F0.9336157944909227
F0.4496111030710167
F0.9800272430049302
F0.17435771462764516
F0.3617694015550815
F0.20308809903086755
F0.818960481131937
F0.29853281438623014
F0.6983220144461412
F0.23125796280051814
F0.7245386597834895
F0.5242111082196446
F0.31240982336827317
tp18
a(F0.2626866368214753
F0.30385178430402127
F0.8441412602179446
F0.9383035566949045
F0.008319089257785794
F0.48550763220477844
F0.4283638561358495
F0.4803333705216114
F0.3794838051180064
F0.018315754485773272
F0.7389054399274079
F0.3137681883450141
F0.17754515500720214
F0.9755989976380334
F0.36609901543419177
F0.3659998577108978
F0.2885411885981437
F0.953306213870714
F0.9332752640475147
F0.9146781198099398
F0.421526879916854
F0.1393530576016323
F0.8114767616077123
F0.11390526989456662
F0.24614884182288532
F0.8457259771834446
F0.6706161655873736
F0.5217765040278102
F0.712611773363916
F0.05191661159626426
F0.6027977381893197
F0.8337387372364249
F0.9784132413005056
F0.5611624932990256
F0.4341447484868898
F0.7873862294852817
F0.8291311328121677
F0.4807635142511897
F0.6863201013077697
F0.16578643034336926
tp19
a(F0.7182394202624425
F0.4337833063153963
F0.04262548021294599
F0.9472372071238291
F0.5499682292830463
F0.39987118950606115
F0.11863843285978071
F0.8634573509809926
F0.1047486304858074
F0.635901798635365
F0.026020340659134722
F0.612607036434434
F0.49458829423265904
F0.8483748674322387
F0.7707020520450945
F0.632340060032703
F0.8506412922480644
F0.22611241426002793
F0.37225008024231676
F0.9219381963750106
F0.7390814635268689
F0.2513988561218544
F0.23397979370774302
F0.15731626057913495
F0.42804071740854777
F0.9070958260292232
F0.5300231487812037
F0.1350153309616252
F0.43206838257587454
F0.42426433469623703
F0.7264968648266565
F0.9606628029744871
F0.6665206549603776
F0.8896549061712805
F0.12759079728765121
F0.1232665719430136
F0.4246015384500803
F0.9881649582315889
F0.5718915640749637
F0.9603458644375317
tp20
a(F0.4474420402785275
F0.756102206708296
F0.4646293714704962
F0.5045303271840819
F0.8091708690849131
F0.7359338812708047
F0.9232341397841536
F0.4446937142710734
F0.5311793412611227
F0.356660406645245
F0.37362193236782193
F0.8077044730491897
F0.7909610206346787
F0.29487047080764095
F0.17148980353002918
F0.4526635823845737
F0.13223870496057344
F0.9501892618592925
F0.22369407325904023
F0.601606493931391
F0.7431613401739833
F0.9908596447422955
F0.7324032490327683
F0.6980449762289803
F0.9167035860090358
F0.23441564601934084
F0.6723774010625599
F0.9070243251284724
F0.12078849036619643
F0.8252529895674326
F0.04506708506913992
F0.9916040489465717
F0.267370558382346
F0.5484128389217521
F0.5094434493599451
F0.2959131164851849
F0.8337734976214874
F0.7002284084987935
F0.7799052294775942
F0.30362839321796153
tp21
a(F0.7407508426429117
F0.854292381849208
F0.48218043699151647
F0.015703140962377016
F0.4703931370648431
F0.09902463171790388
F0.49641300118892895
F0.43376827589727374
F0.4863113555919416
F0.748554135781618
F0.8781805813859466
F0.36397566781298507
F0.13511216524988656
F0.2888475505158157
F0.7926232140590882
F0.1718375009434555
F0.8381252395078311
F0.5639644044645467
F0.5315121927172503
F0.6446630922638161
F0.7539648411533822
F0.8483756314374724
F0.7425629511512768
F0.22556609654420134
F0.06374514815959631
F0.6022379633830319
F0.5522391554810164
F0.1475885673997963
F0.5923277527102714
F0.4968132245655865
F0.16710618721613002
F0.8432039649226282
F0.15040745330363525
F0.29487729345962654
F0.7221473692209915
F0.2160430411388481
F0.2718883577419642
F0.07602671855863175
F0.8531928034481604
F0.8808003698252623
tp22
a(F0.5112072682661564
F0.3954774037278782
F0.9028838856796315
F0.5893639668265723
F0.460527603261194
F0.7713254541751662
F0.7416294562756082
F0.2183390970286898
F0.3501690826857424
F0.5764882378037401
F0.870181419822201
F0.5164414808701834
F0.7474806045023492
F0.5877201724663835
F0.546439524977144
F0.9823916478912166
F0.29906848063051716
F0.07779805148674379
F0.4122430665407876
F0.09639665888606075
F0.20990912966935804
F0.1253358079998771
F0.14676420035520765
F0.7528791390345771
F0.0703517339830807
F0.9755827684642476
F0.680809770026514
F0.9843645257824677
F0.2691039157464914
F0.9079372578085045
F0.6839944192670245
F0.8347029773085534
F0.22911480466841638
F0.40834133352113866
F0.7348624183266824
F0.43826355340118306
F0.7723240706748512
F0.2550800140724787
F0.5425069245911607
F0.04322983192078955
tp23
a(F0.8004612608868056
F0.03532479147353529
F0.3093669061038621
F0.9134124591289751
F0.3275296125049655
F0.660923362490361
F0.019664279747227953
F0.20989291300769575
F0.655794783627433
F0.32634113624311545
F0.9419582147476709
F0.9139569674529009
F0.5649220389428052
F0.21120701945979448
F0.9058855732227765
F0.016792678442732245
F0.3467218994142217
F0.005282475611563475
F0.7662177614328105
F0.7762414577939142
F0.07516752413732042
F0.3261516563576917
F0.49964625571656884
F0.1503803557276202
F0.7800134135536778
F0.6167656744601452
F0.021650729286152526
F0.9355205152574797
F0.7290307834655781
F0.7725546990668221
F0.5329655088863654
F0.21441039067735568
F0.7965134002060031
F0.27285769070451626
F0.34275520671472315
F0.6223471516582154
F0.6880280262685309
F0.03636914230206156
F0.3873736929981558
F0.6475524633229931
tp24
a(F0.6217627615438032
F0.7248584150165932
F0.8159725397397739
F0.8644414009210636
F0.4102961385756063
F0.668770745787322
F0.02274865272645954
F0.5301151830982309
F0.15608295096833757
F0.9815600300305535
F0.8216001226124323
F0.22728436315047218
F0.8465039587869237
F0.27096603060127933
F0.9988106005309266
F0.5597246199567903
F0.8598990139258782
F0.6018328652163757
F0.2725268086027327
F0.7393578572468598
F0.6982436169227438
F0.8451789018077263
F0.6490144467132278
F0.2117355458330732
F0.2763797888318257
F0.06739820800286977
F0.6141955088602745
F0.8211817355367006
F0.14191375577601828
F0.964609159712042
F0.09408005495731642
F0.8686169852903325
F0.5102637664109684
F0.08554551126215415
F0.6815854056784314
F0.5305355105535386
F0.17333257476599884
F0.020064157678436834
F0.8900020829524817
F0.3526905344113994
tp25
a(F0.6885931377303973
F0.3178720842069226
F0.11452872642330336
F0.4458792718575828
F0.8822462379948268
F0.46032261190031143
F0.8283726634679022
F0.1962851127634997
F0.2605739734358
F0.29033355073212364
F0.5487022854202162
F0.5885134607884064
F0.46768010644840197
F0.019902370532580704
F0.599442526374675
F0.9225124052198767
F0.9324329680176862
F0.012481280920546678
F0.8784607865942675
F0.5892233791041739
F0.08327915761155624
F0.3727937052477609
F0.2784016603529881
F0.73144492517544
F0.646045702737431
F0.8835218355582044
F0.34472085405988695
F0.8346253773244282
F0.5958283617195378
F0.9044393590611916
F0.5086376013689805
F0.6077903933521709
F0.6776714664339686
F0.28641261924696515
F0.6238773023096889
F0.08143961434024383
F0.909749128174163
F0.06129004941957872
F0.6584616136828241
F0.6833036976610458
tp26
a(F0.07060693359239245
F0.07725268544397235
F0.4642135227924036
F0.777313949971301
F0.6857580406124247
F0.5310322307500426
F0.5516388327183531
F0.6793613309007425
F0.6306576299420864
F0.7988819507242656
F0.6521972423808908
F0.592454811647308
F0.6018505185239174
F0.0540599250427507
F0.31236177269447374
F0.7583576826224937
F0.8075667819593408
F0.13510617046013995
F0.15969556477073066
F0.3351437395474338
F0.7001384142285687
F0.9672924433359121
F0.03593227389337639
F0.9391936696404145
F0.17205198624167428
F0.17363579649497796
F0.7055263888938813
F0.408196102451561
F0.5386518632037907
F0.9764670286738354
F0.8201758032260427
F0.6954872725377044
F0.7232262129777093
F0.6791265934821269
F0.8075721602247146
F0.5415350486936656
F0.05901787191008767
F0.15117125845671076
F0.9669732898334169
F0.056042599493081546
tp27
a(F0.9718809001736244
F0.288089988139723
F0.05082728648458146
F0.8742295073744917
F0.4396442548919679
F0.8731836091112243
F0.3001952837587245
F0.8686363136776868
F0.8754036925922747
F0.6433105649465506
F0.59359818240198
F0.9609081905305585
F0.3706395533460266
F0.2909802291895357
F0.03349749962902138
F0.4528966421325178
F0.3688501450976247
F0.5703174019476906
F0.15022855134825575
F0.2891711863007519
F0.009898249515799096
F0.42738812227041656
F0.16176330640934522
F0.6346885632566089
F0.20984191288878173
F0.10992549811844055
F0.25384403759006813
F0.9939836607311568
F0.26370019777282816
F0.5998373051170434
F0.23719133701474948
F0.8083008082457569
F0.8901775842722869
F0.3487538689650269
F0.021676963470120936
F0.2734784332052156
F0.38803109125619584
F0.05997078304555137
F0.7635456300851303
F0.8605306075463183
tp28
a(F0.729472344034021
F0.18152596994880155
F0.8557629223243076
F0.08527970024376563
F0.20531541295693956
F0.7713090866443492
F0.9407187193885249
F0.3098695288942671
F0.15802600712260761
F0.13305118570168073
F0.8229650303344785
F0.46768694244693054
F0.5673446671211694
F0.137278233185968
F0.10258669226980166
F0.8867179261126158
F0.7713732365326761
F0.21167169505144545
F0.6078279768844578
F0.20473701783743847
F0.2640572689783647
F0.5057730040868003
F0.06813553726044075
F0.3246196698162436
F0.5602005611074309
F0.5088075398078974
F0.944134663667294
F0.21509102363981225
F0.419759478907307
F0.6193610345405832
F0.43615104919789494
F0.9166183819192454
F0.44905854101312936
F0.9985439518984465
F0.2940985047722886
F0.3458559718881633
F0.985712036785486
F0.1886469927108857
F0.21637083199324592
F0.81983997293101
tp29
a(F0.04225502022172112
F0.19634602840230286
F0.12119209562126365
F0.9549114085937147
F0.9264444427530739
F0.07226261780785359
F0.004497799570853056
F0.11534938268752415
F0.9810550821620615
F0.8993640357181893
F0.5262182720297914
F0.42479057242628515
F0.27818059803104533
F0.06620855277549809
F0.5297711078893136
F0.9022746461110575
F0.946475446259068
F0.8761507866231447
F0.5537247550312474
F0.6261653605889274
F0.19260220499471647
F0.7518359210666633
F0.35740776745870173
F0.6970277942258268
F0.396407231168321
F0.8504283453469937
F0.5923572652179447
F0.6805314346804335
F0.2630922878435694
F0.7407586688492821
F0.5572700515604756
F0.6729296168651209
F0.4272636458199953
F0.1087666547289372
F0.21337636010567795
F0.0858331551122179
F0.9215584391896101
F0.7948191819118444
F0.5237790385557347
F0.5724023900134129
tp30
a(F0.5281434165975871
F0.9188624693381027
F0.2389905507537936
F0.07518288741074608
F0.9518452440762998
F0.5980800154570733
F0.570592378665067
F0.438680485027215
F0.5549770711544457
F0.02845320322300504
F0.8773521837786066
F0.4815702158724344
F0.6204722251119301
F0.4090132635021023
F0.7813932190257071
F0.7640552648861283
F0.9754538835537673
F0.9394803796363329
F0.7320611972197385
F0.19314185610789825
F0.620331261008104
F0.5008645611512175
F0.9921153016682013
F0.8899419773825411
F0.7078553462444217
F0.24900120153588634
F0.5684926289424621
F0.5213416038568308
F0.1214522338002324
F0.9599227006868157
F0.13943157473680567
F0.49326237577866705
F0.152229218714918
F0.6938350609420588
F0.5014156452527817
F0.7567812990223448
F0.1541493161429126
F0.16843850514826242
F0.13898778513647958
F0.1105044242622526
tp31
a(F0.6904327797428389
F0.04189515217564477
F0.12006111745059211
F0.5787079854974153
F0.38135354318501147
F0.4643980462294658
F0.8326896115845032
F0.6816405443568939
F0.720245048864398
F0.7177213198540017
F0.5170079077096182
F0.8575344942484283
F0.3679261072382499
F0.47549485169378314
F0.7554904777700175
F0.32552722881262175
F0.7703385801786176
F0.16016267371367532
F0.16881463828148158
F0.8656259710491336
F0.3141875986251996
F0.7024133636584619
F0.7435326205648287
F0.3447455996069365
F0.6606452942006422
F0.9837291336625645
F0.3408035362083811
F0.6552243425746174
F0.1341633282168445
F0.5848147863953757
F0.928505263634481
F0.7935828766143279
F0.7610700151324237
F0.47796417553046533
F0.43847622623650273
F0.981381149793061
F0.20091971379338913
F0.40686444031391544
F0.6635475041581634
F0.6060434886025597
tp32
a(F0.14462724364679136
F0.9032505546074082
F0.07786334159902475
F0.7719317271235592
F0.5862948783766229
F0.03436310636877116
F0.6902836505101455
F0.609149545701785
F0.2208923160204762
F0.19920541431828442
F0.18767084067606055
F0.5352139489422781
F0.24402526582538342
F0.5061254678778132
F0.8744142139347044
F0.24831762582457162
F0.274071066323904
F0.11031482198469911
F0.39051950561802173
F0.07563907863729469
F0.7664769530052487
F0.5468430177526297
F0.33965054129874384
F0.9186261310723436
F0.2778662445215223
F0.34865256893751206
F0.14631174037746553
F0.6960707266941352
F0.06472586564708449
F0.08399835639885567
F0.16559389686394743
F0.08582066588164672
F0.6585513968923449
F0.4728742446787666
F0.9483507998776692
F0.9702590955602943
F0.9514879719180916
F0.007643351751959848
F0.950889636704681
F0.29431604457959437
tp33
a(F0.3840321943550564
F0.7902963064243104
F0.9296231344235334
F0.9011516736709583
F0.24715522488273334
F0.1264598658817595
F0.9296769964342108
F0.19437121181547823
F0.3167220535885522
F0.16131678739621313
F0.6711046623615682
F0.378058574139548
F0.002153053809906713
F0.38409840736665846
F0.47423715788984544
F0.6962749739442328
F0.9948843854140202
F0.19609642137417183
F0.010037875607984414
F0.30180575317725644
F0.9663167760307788
F0.7955430590926064
F0.3539596572274303
F0.1643463419854796
F0.6536754070452556
F0.6134549387951469
F0.9841324888698016
F0.018936227174530695
F0.6676612558688341
F0.5745169263266952
F0.5969450426686921
F0.799107153827627
F0.08328748761161153
F0.396707505528893
F0.6956496875893596
F0.476688685835424
F0.4765005792512338
F0.0680840439866125
F0.029932192912952127
F0.03244610246089075
tp34
a(F0.4007618465025279
F0.27422994019718616
F0.9422226901765689
F0.5732576651525901
F0.4429212643406262
F0.91963974953698
F0.34521609432867373
F0.00556734467714981
F0.38821005633591144
F0.5398858244735351
F0.9229685214435825
F0.03168543206171215
F0.1676714530906539
F0.7475189657676337
F0.1367864932739139
F0.19413313503330543
F0.4880893833737123
F0.2657883671820038
F0.10630263604383194
F0.1841342666012339
F0.32777054749514734
F0.0742351003230205
F0.19871875700734787
F0.5876732864139513
F0.7486778517544475
F0.6356911521812268
F0.3089210216445927
F0.5009169982577931
F0.42726431737868575
F0.6107432481248359
F0.5377836765403099
F0.3238042697195296
F0.35959474799362856
F0.14953992871582678
F0.6969649670572828
F0.22270599782314415
F0.2872655017317701
F0.6290018853966383
F0.12391294770486927
F0.536718872004127
tp35
a(F0.48192533943683347
F0.039569447636227384
F0.5734998269333615
F0.5614130468058853
F0.2623025426873098
F0.7195538388461872
F0.4087517823088026
F0.6997273315595532
F0.8583380189874567
F0.5825450929971754
F0.709332877930053
F0.8644894188262828
F0.722055310957108
F0.9463340635054022
F0.572518577047942
F0.8973627763132146
F0.25599854556861
F0.24752070904041001
F0.9453965342821359
F0.5379529736474706
F0.4821130983911892
F0.7115949830941906
F0.6157251788924978
F0.3652754405256363
F0.4331046714247916
F0.24287818601514577
F0.9264169256482349
F0.7366462801081217
F0.07333322112374463
F0.9697067540645821
F0.00599439859307993
F0.7755961909937148
F0.9878447330337373
F0.3863801619544792
F0.6934025556623586
F0.21288321469617533
F0.7875418220961715
F0.8656450212412903
F0.2055644611547437
F0.6733785466945802
tp36
a(F0.11132296174956857
F0.3272296793988506
F0.7223866038032684
F0.1757739342388458
F0.7981072894035555
F0.9467238504612474
F0.5713282882364072
F0.9004117361148053
F0.292206083491083
F0.3931779492977583
F0.6053955757775281
F0.9859918373432249
F0.17993200057128922
F0.602075570721103
F0.608034974904288
F0.029820458192358235
F0.46717643111293305
F0.6595589617989341
F0.9539547334667042
F0.9746874111980344
F0.6262756727041979
F0.9615969816173328
F0.7592415933311163
F0.6752997648364184
F0.5691869351433884
F0.7784302980618398
F0.35971517603442116
F0.17916868902540095
F0.30285681037144807
F0.465900223238335
F0.7305673536775548
F0.9198941765759872
F0.469194181921179
F0.43626758503555074
F0.3758884784513363
F0.20940190001304038
F0.7022233702241872
F0.3140813308454895
F0.15475867393380005
F0.9157983162195991
tp37
a(F0.2603998904104511
F0.5152244186447931
F0.5388500328228011
F0.37650464784672577
F0.5458530163061193
F0.27788196327295955
F0.45697118007966675
F0.6293384803380501
F0.7865036498417006
F0.6140332710168369
F0.15314485749949736
F0.5697257170167834
F0.49357515847608224
F0.9101252286403977
F0.5946794543686084
F0.5342069676823529
F0.4262654906183625
F0.8803388526228343
F0.6554083968855661
F0.061094252500889845
F0.08164029042445131
F0.5025975554385578
F0.54714696093989
F0.26562587664744597
F0.05931025955697877
F0.9530688435319576
F0.9044968710339963
F0.465623358730617
F0.0689033122617192
F0.8588994394785983
F0.06538100862447371
F0.7088701911970371
F0.3827167278954221
F0.3053775545005316
F0.5089619833968966
F0.5340555491985287
F0.17672898752124244
F0.25431209505480146
F0.4760010542764901
F0.9649447367501566
tp38
a(F0.6092735417080504
F0.004882531033231552
F0.1614766532464449
F0.9814134146249764
F0.9929299333283507
F0.6426935121767927
F0.106284492163641
F0.834834619202674
F0.7236410412800098
F0.5882186815193569
F0.12991497980755107
F0.40370174760609956
F0.09482161787918053
F0.39266647962195744
F0.7502140735311287
F0.6314214650935451
F0.9893803275234545
F0.7235542440770403
F0.9688680954567925
F0.6947301911599745
F0.7193285994785462
F0.13728271902462608
F0.9586952631765057
F0.5077762689134706
F0.16958705329076318
F0.5838418581393199
F0.8147617178138092
F0.6991056854644476
F0.28135533963109527
F0.43910674703913044
F0.21644590964158428
F0.991730700599685
F0.5349644606865502
F0.9568157589777904
F0.8044080115653058
F0.9997601903243638
F0.9545780203423186
F0.5282671843913687
F0.2933977697065254
F0.13019474540896014
tp39
a(F0.46799901200808036
F0.8322148312579231
F0.6490324231911597
F0.5019002357189047
F0.12031985227025188
F0.8300688457723526
F0.6836125171186568
F0.054613955866464114
F0.31915557494160574
F0.3211508247064163
F0.8401822643014337
F0.903297876273319
F0.4584647903728637
F0.53439284642583
F0.9564111391138729
F0.6535873625495514
F0.8306376749038332
F0.5042866941676647
F0.6835294687097928
F0.28696013974034196
F0.2269562721446423
F0.49021536775255636
F0.14732153873990694
F0.8816960636165387
F0.7433346920912933
F0.46330612707251984
F0.4681290257495402
F0.822332350305533
F0.619298141416178
F0.4774184618484433
F0.35441017228010263
F0.7952074839927895
F0.8185561762589887
F0.3610034554001097
F0.2785852257984389
F0.35946737683685726
F0.08929650334728989
F0.2992604923094139
F0.8990731339538465
F0.5893341813038061
tp40
a(F0.8678988725478632
F0.6046768764011371
F0.7565562393731124
F0.029287626576471992
F0.9001712507732215
F0.5526285991703488
F0.5241195495316741
F0.6639618425399477
F0.8030300713779488
F0.5534405488675136
F0.9359461612547767
F0.4061215330402117
F0.28664939020983504
F0.7010737472814507
F0.6947428910950805
F0.023547035032239205
F0.8820036946073262
F0.7757923295499396
F0.9339947116649546
F0.5209490756909331
F0.269573520112498
F0.5023906214675231
F0.09886806070514875
F0.029045331492614013
F0.3586612647316759
F0.6300282678194865
F0.9029805466986427
F0.24020600241517776
F0.43890060994414193
F0.5969007550075779
F0.37625106050206225
F0.6339439623649467
F0.12376493862092408
F0.8364581200726815
F0.4850880049727464
F0.4699207233983099
F0.3279727823799461
F0.5717783346038233
F0.18793802754020938
F0.6704919659960764
tp41
a(F0.43692086304498834
F0.5419025415173233
F0.9623775052576605
F0.8195369919081749
F0.562887585640232
F0.8254052885946498
F0.5315062853861664
F0.5563542172023622
F0.8455161500798539
F0.17746850403070458
F0.14122004726088955
F0.5088786412217494
F0.7288840103351096
F0.6181260926414767
F0.3848353096217686
F0.1018449309385403
F0.01977829513373519
F0.4259633603737144
F0.9270537006953017
F0.11988451549002455
F0.9501203086499489
F0.21686566866026835
F0.07551873356416494
F0.0972746176657161
F0.5425109719347594
F0.9907852904129463
F0.6105856797795676
F0.13131046015735282
F0.9657294843913565
F0.9485167428689772
F0.11483604550038562
F0.515976347775727
F0.03652310516809498
F0.914534826624943
F0.1345497480344836
F0.03909373231503477
F0.13602124183494912
F0.8574326907353578
F0.03617637219527958
F0.029044088532318768
tp42
a(F0.7949206770384322
F0.4292596088273025
F0.07815405756804461
F0.18801505979714783
F0.7320446791337037
F0.6881911977575921
F0.07833527237756399
F0.8643296908042202
F0.8744495977986282
F0.18932965735000296
F0.8628326943132669
F0.711040021681838
F0.623332203301562
F0.8645133181161843
F0.7828082115283602
F0.106010421332837
F0.0773750329558286
F0.6796167263958078
F0.011418273099792708
F0.684322743589498
F0.24038733204853813
F0.9138517549516443
F0.545435386651773
F0.10744058463167583
F0.6532163809639723
F0.8014196447057237
F0.5978513583808452
F0.2853385364935458
F0.04927652880125377
F0.8352085890000799
F0.11152922599754611
F0.6703187448042071
F0.013829586687404749
F0.3519048429233179
F0.16918263340215822
F0.250759517147191
F0.4105857969591873
F0.505676085700019
F0.3720253075552745
F0.7032988928969495
tp43
a(F0.22523766852777238
F0.8027574412205396
F0.25627454056642196
F0.9353327649786911
F0.9048429194761837
F0.6826192499960766
F0.8815608992041479
F0.06641650563540813
F0.16246228625940196
F0.24955826455970986
F0.5702750714949869
F0.25737775983629607
F0.22771267776822957
F0.5605888628528328
F0.3794826731585925
F0.16836558556956216
F0.2528652085494405
F0.081774083208074
F0.046253038668588764
F0.9385321228846427
F0.01607620898080775
F0.20348741638016232
F0.13611645486018042
F0.02769318881164451
F0.3743913130940323
F0.7832317790358798
F0.90003747908021
F0.9173625619324058
F0.01981357589660626
F0.0553338733878348
F0.22677918355581705
F0.30435705578060734
F0.5183745732092154
F0.5728135976878689
F0.531723666336595
F0.6619454733914927
F0.07208619546331407
F0.7442640686305203
F0.3855111987567168
F0.7897236817819492
tp44
a(F0.9980326262720657
F0.4070454744352512
F0.9711588305379093
F0.17144531112059813
F0.3499755434979426
F0.7506998315027297
F0.044002677160232206
F0.7072596422948306
F0.3812908568794081
F0.31884416977870866
F0.46075239810237445
F0.8033413963485875
F0.7714326967822009
F0.12319058425200824
F0.1128001653287295
F0.4882019459301913
F0.4056303622200589
F0.833339258548635
F0.33519879278114884
F0.6986463951611689
F0.66948857906322
F0.6647136510088066
F0.796397219205557
F0.8602120140781426
F0.18980601791712848
F0.5264315177681712
F0.14687050417990666
F0.1858124176836664
F0.45612241396841735
F0.8885195491973176
F0.5046142714087538
F0.793959873827411
F0.18271868301197902
F0.06754887343302762
F0.1539217272696074
F0.479318481254833
F0.09985984301330564
F0.6717194583575677
F0.7894265724535191
F0.6512709816194588
tp45
a(F0.36487955782970893
F0.9329422643671658
F0.18320301125890393
F0.11241688458892996
F0.6341556068552532
F0.830724992616249
F0.6919460502959528
F0.1388882817301924
F0.38485884148252403
F0.49483156607804557
F0.3151038170825129
F0.486373949047339
F0.4096501449848723
F0.9252069611826802
F0.3920775968833853
F0.7426520390692938
F0.05983157161437258
F0.2252523680947982
F0.6817909919305087
F0.9349728516810969
F0.4374308795693487
F0.8141841119570898
F0.6743961115854594
F0.9233450999907463
F0.8501401890516076
F0.7207439925801017
F0.6423620852667226
F0.8485598156730862
F0.13031428395711264
F0.47842235886924
F0.9735081673246587
F0.24265443256323516
F0.656387176106745
F0.3038766046640008
F0.9552537238842156
F0.22605126314173207
F0.8483220740371005
F0.45703780778876
F0.2748022414250295
F0.7124369680227317
tp46
a(F0.9172308912184419
F0.3157201869690609
F0.9913763270760122
F0.7663495565128258
F0.5534173185983063
F0.6238384217890173
F0.27585697563887623
F0.8481187373494165
F0.0833238900874429
F0.889773369029329
F0.18625884784677538
F0.2907506831596075
F0.9160150180057921
F0.3451780107969382
F0.6069994220706634
F0.8065422193398872
F0.7458806492995643
F0.42891526870206464
F0.8225843496841474
F0.0475711918039885
F0.21015972196261645
F0.08222356219077864
F0.9966594824819804
F0.010694597854794874
F0.14050543783647151
F0.7504635665281516
F0.27133042494200654
F0.5534097483989541
F0.01999476284952928
F0.6708066100556518
F0.009638825873032886
F0.1611483887160602
F0.5746199123297094
F0.9202627831699777
F0.8581533263478553
F0.17608948074011066
F0.14841116437798485
F0.4853942745896773
F0.11770542620037239
F0.14645153560128288
tp47
a(F0.2159147399487259
F0.32010215007827436
F0.8429910806870147
F0.7813629446866894
F0.17081282968365596
F0.673063264033668
F0.20737052503336428
F0.859951832667566
F0.7327404748705243
F0.6256133695071568
F0.30498494115347863
F0.7557267724113045
F0.6511175463010266
F0.9423791537671884
F0.6522362081220858
F0.5423183450149868
F0.28717705174091424
F0.45881557110215676
F0.7535933677644124
F0.7672663767151915
F0.43150828973541944
F0.11693861733646327
F0.5804046126125919
F0.5082785107703154
F0.5301433262091328
F0.30747024300119175
F0.0091070975535672
F0.4317313136850063
F0.6061604229598979
F0.821935608151262
F0.5888718401901519
F0.41851081176633687
F0.4716251138511677
F0.23486529417447566
F0.2872418209738109
F0.6445712944198294
F0.05774933276210281
F0.00946263512935075
F0.7971015474024227
F0.5508762637598295
tp48
a(F0.748589504301057
F0.7074368714016702
F0.41470616031971086
F0.4198900514302877
F0.3788811485920107
F0.690698977837788
F0.623676941255686
F0.08364604818193955
F0.4903817529459471
F0.8970230525265618
F0.45512377918671854
F0.1773275153949575
F0.42340255880679967
F0.02560370640760079
F0.9370131531234145
F0.06322493522520145
F0.5468262506958107
F0.4357021644196567
F0.08281309647518276
F0.14302727125845938
F0.5877425363714239
F0.22416942299623832
F0.909665080731298
F0.5871915055532114
F0.9334944305658229
F0.8240061706536367
F0.3919289677925787
F0.9085843083458025
F0.4450458687840839
F0.8211256317823735
F0.428553642207548
F0.14504966034947575
F0.326356400864968
F0.5773090503988635
F0.6042073389044081
F0.7674229625363984
F0.18504487887726584
F0.6049936880813868
F0.6557831441264096
F0.13070895934795346
tp49
a(F0.07426036521869084
F0.18495509701746604
F0.3899940501870004
F0.9463580138912692
F0.18393731399843827
F0.4568612075628157
F0.885683251422086
F0.769721102980948
F0.9787657973249536
F0.7876706706447506
F0.06619459095518088
F0.6692282891990649
F0.3171358110481267
F0.018997235554889635
F0.4158926402282914
F0.653510606054273
F0.4091443511920908
F0.8617442960003548
F0.9819443821659547
F0.1512011070338628
F0.9873465976306449
F0.7053520437100846
F0.18266704422530067
F0.901274378501246
F0.08871636465271848
F0.37013426649121584
F0.062112733483033256
F0.98383116672972
F0.7066916671904993
F0.44075199182555336
F0.8161657748070796
F0.7697922884418893
F0.9147979662310459
F0.15925673025851916
F0.4873606884431372
F0.9831067392379345
F0.3535109826172902
F0.6099822951122382
F0.11788585094430781
F0.8137321182238704
tp50
a(F0.5407332095323497
F0.4485035829580726
F0.3639304211322172
F0.04478012942634346
F0.32247729385870794
F0.9496215460868004
F0.2316620913550378
F0.27490567963412826
F0.5549694289720462
F0.07134645100796444
F0.571723368523354
F0.40434734315418197
F0.5251734232799488
F0.8617774233973879
F0.14898083713386367
F0.9550704400693193
F0.1713665796024031
F0.7841626570551193
F0.49445783521706044
F0.6741202259620974
F0.3822109527058315
F0.3249304028640715
F0.699664393202432
F0.5437713485430234
F0.689622978660398
F0.0015824209359458496
F0.927450993359216
F0.10392136985719613
F0.5309074649713112
F0.30756243619745416
F0.36605011898938067
F0.7072513640822232
F0.678716906864412
F0.37471527047569375
F0.6863852587027022
F0.7434530031779875
F0.49390091572091765
F0.0770577903193378
F0.7489878008419314
F0.670814882947509
tp51
a(F0.26904774007051246
F0.204071167944597
F0.31226727587699954
F0.8352563646286228
F0.3778104267675798
F0.24588448248024597
F0.6525732052264197
F0.4696214201899137
F0.3196081333336894
F0.7708869778318681
F0.1937438129805702
F0.26189023594255467
F0.8695967751080281
F0.2532618983672186
F0.8463691573349498
F0.7015913777084606
F0.024606621408033935
F0.3980939154283586
F0.829689906009213
F0.4621692640394569
F0.9130684450303058
F0.14982305795812623
F0.18401039548027298
F0.8151765496570892
F0.48843528670826364
F0.756920852288788
F0.983739009537672
F0.1377623530158768
F0.42458520207922623
F0.7644948486774612
F0.7839239598915697
F0.4959154594622469
F0.5105427895621693
F0.8719653320164801
F0.8011519237638107
F0.3081750880771583
F0.4538610778217579
F0.08448402055697102
F0.20082300857594282
F0.4477955179498633
tp52
a(F0.31261981298082275
F0.7113581058982542
F0.059345731953089675
F0.4629747685084783
F0.24284497851241238
F0.11718299321499692
F0.9723987357015993
F0.5089073548813167
F0.013996917119757035
F0.822622228422262
F0.1742512429852079
F0.2601996073471199
F0.1687668580858115
F0.7194019884396479
F0.9281941216406724
F0.9627024312704496
F0.9848978995172983
F0.23727218823335927
F0.08839088607169687
F0.7770549951599494
F0.9443563596403488
F0.5562995116269582
F0.5895414487346877
F0.0064515645065829075
F0.10589372211252834
F0.872495267944267
F0.8553957928727548
F0.9512843300776004
F0.3323299470647245
F0.8261404050665756
F0.8638270658002977
F0.43261277547698707
F0.9659958162251244
F0.28904419788151436
F0.4220726421453227
F0.22681243816015473
F0.9249147032326778
F0.9569161106752067
F0.20599467084411283
F0.71998136612877
tp53
a(F0.03297205044073592
F0.7848475930952608
F0.060258372037097274
F0.7021304347128148
F0.7021544289747158
F0.2427664584446233
F0.8299174230431512
F0.35282080614285316
F0.34366357451882956
F0.24873042270480306
F0.3573595972663882
F0.8978114241258656
F0.9966779466425506
F0.9249149364561813
F0.4166596029713515
F0.8530435985566083
F0.5256429258984441
F0.8487275738147557
F0.028656772083818005
F0.9230690756985727
F0.029268020186129617
F0.8266987189132858
F0.20972534042411928
F0.46379408893983864
F0.585567463011071
F0.9076830347556956
F0.8910793387208671
F0.6685853517630524
F0.6747836360135813
F0.8288222643436655
F0.03459160311676801
F0.3534014408808429
F0.33719339886921906
F0.6062660531661438
F0.061904508740761255
F0.4208878412445285
F0.5594692281080468
F0.6295303197793228
F0.02875181691422002
F0.5153157109132437
tp54
a(F0.9921646152566019
F0.8553119871292699
F0.7119443119127599
F0.5219802845906507
F0.17045450165220755
F0.2828915834394975
F0.3370824750962378
F0.40965036714242653
F0.1003885262823645
F0.32168210934609587
F0.627302549271849
F0.3688420023999873
F0.1831007311725924
F0.652317319122441
F0.27651810369855934
F0.6869324517571445
F0.28805602156455534
F0.6000620477716265
F0.48075568769657195
F0.9116980462823937
F0.029031378745050018
F0.4348887170502568
F0.10782564178123555
F0.35247115036506194
F0.5772770046328841
F0.17290341876200577
F0.0339694457989127
F0.39822311529670007
F0.35201770374819896
F0.4923945380400765
F0.22304610424770954
F0.009353858230014445
F0.6849849912253533
F0.37419475775461
F0.3040964996248101
F0.7344789986849616
F0.43672105777293246
F0.6068197818331028
F0.7277690715238121
F0.21062116776489048
tp55
a(F0.7395583157094305
F0.27888445265133033
F0.6882236318501926
F0.055472300310328126
F0.29769626452992815
F0.34814023299326646
F0.9705657252728542
F0.3924793462809206
F0.8933499920408797
F0.5533244675102024
F0.5579247894598606
F0.4482520084843784
F0.10195389396940868
F0.7250277176890202
F0.01428424444182641
F0.0744773247685182
F0.5546319668070041
F0.2291043025665359
F0.8651398792279095
F0.7744405276402389
F0.4299345872579905
F0.4445533536209906
F0.9128873937849105
F0.3960285295290249
F0.2207718113149023
F0.026029056449965227
F0.21958155352619024
F0.7002681014369097
F0.23488291298571906
F0.3984834306472902
F0.45056333304656815
F0.9513990498092328
F0.39390698844521954
F0.907339000390709
F0.6020617441049454
F0.03411437657694161
F0.6850265776496363
F0.33065620571370646
F0.5376301566370232
F0.8046717045925444
tp56
a(F0.9086254767872135
F0.622815757127333
F0.332954734461537
F0.7796528108467154
F0.15177738226778614
F0.23283601730891035
F0.6951584816253323
F0.6914881107413114
F0.6172595994799625
F0.15131714211175695
F0.26668099671075385
F0.37730312829698776
F0.7685280670673464
F0.9995134810849606
F0.35412537243636466
F0.3727284110904512
F0.2283201653562308
F0.2449507372103954
F0.7322884803278569
F0.06378450298419236
F0.7284373652868337
F0.8395734024644066
F0.39655953276002553
F0.32971489414883615
F0.6341281666849091
F0.13807586927105842
F0.7068409486571153
F0.373221351372522
F0.2649484553166138
F0.8903802604823445
F0.8896650278067146
F0.09363995734377295
F0.6943791075309234
F0.5690169531124306
F0.556071513497944
F0.20116069805026826
F0.5397896750184212
F0.44723533695119577
F0.7891046021797018
F0.5784451042997046
tp57
a(F0.10060053957630066
F0.9608514306342397
F0.21173395797785344
F0.554477791746271
F0.8356930696561107
F0.5078552716828519
F0.6631046346854972
F0.26589860725827363
F0.5895004078333996
F0.36326439453375947
F0.7816404874822577
F0.5159296408628488
F0.5537788083571057
F0.6027877647974726
F0.9814631339069286
F0.8850999918273665
F0.7509406295609381
F0.6694676551114324
F0.3424019069872375
F0.39343136120289146
F0.084425200755058
F0.9171271097824526
F0.2089877197251837
F0.27817296018099347
F0.2054803539031187
F0.7240923811744215
F0.26118219154920064
F0.7181284769801364
F0.354913344089849
F0.7029301744628558
F0.6964438603900457
F0.8470201602454268
F0.12356862302852323
F0.03967197033991221
F0.38382024505935564
F0.052247552419641186
F0.8580146359356552
F0.611379765420252
F0.4559427123855657
F0.5830231668737047
tp58
a(F0.5597771250069836
F0.13283827414007843
F0.4020174805855671
F0.402734572684185
F0.9391028275294743
F0.5836166883005114
F0.7480651661400737
F0.7384800397034398
F0.7862523109207874
F0.975614094230738
F0.275045635160576
F0.8714061664752903
F0.11874505657826429
F0.9393812273769294
F0.08177142563033812
F0.026173534608740834
F0.4346138184821495
F0.7009089951647415
F0.034484148691461214
F0.9680647051580467
F0.3583657308239633
F0.4598427315210867
F0.4005251693597567
F0.08650375336029226
F0.6063028460561196
F0.5957559425773877
F0.9593901192662114
F0.9208645591760755
F0.9505685625354132
F0.15907909818469212
F0.07983572261195471
F0.5937733144099567
F0.7541438789219763
F0.657577293199318
F0.5052095183028109
F0.3527998567425924
F0.935446100646648
F0.06454792251044705
F0.5649967535794811
F0.1695839194743538
tp59
a(F0.1585364975731135
F0.8701275513201736
F0.9008775967750227
F0.026980905450747605
F0.5012856684083901
F0.6861593231715826
F0.9644017586134634
F0.8157460323797868
F0.5020429677816746
F0.9520075304722054
F0.7612643528979273
F0.1628585356592498
F0.13948624856324987
F0.08741111272948743
F0.7517545537344081
F0.07972655432666187
F0.8561493438680546
F0.30960822304831803
F0.9069983910611581
F0.6714521426831827
F0.4877449664978921
F0.5630404695900075
F0.9132273066664337
F0.5973598584544844
F0.22585143465620983
F0.7603752288167845
F0.5583450580055206
F0.22990967804125395
F0.7356953497860735
F0.41547486158906477
F0.6180627824225199
F0.3675902424950239
F0.4318584675313598
F0.9113779094879498
F0.9284031112488231
F0.45233482752243825
F0.21634413801422347
F0.9375782987027177
F0.24700786292163635
F0.3097227026578434
tp60
a(F0.9719380369139495
F0.15431519176130382
F0.6977787979043352
F0.8392382430100993
F0.3080216632171624
F0.7595832108765453
F0.11946592211985285
F0.29425718555478797
F0.7914451650128954
F0.7278649629481367
F0.2551808515135465
F0.8457800051129376
F0.7244975221559603
F0.2501654531596713
F0.7412103131511365
F0.7888886408820909
F0.8148921350636216
F0.7551140180985052
F0.07981454727018611
F0.5176914031611023
F0.7061233869450029
F0.06444585204764952
F0.5967872827577279
F0.45002759579656015
F0.11538368207516159
F0.7130778272070954
F0.5037234539138076
F0.0032239943104955815
F0.749885205368056
F0.23767240885538543
F0.7989904741065003
F0.13415469036031524
F0.021797357894670077
F0.63073609410941
F0.724563270026023
F0.09559233172473036
F0.794959856639242
F0.5452170964208117
F0.03946044236969548
F0.14426647034539242
tp61
a(F0.4901760958610347
F0.35764233593380435
F0.8820142734185896
F0.12590492418301635
F0.6580168938723928
F0.33429551740639074
F0.5476977642334578
F0.2741928522597107
F0.3785977385831175
F0.8408753445726608
F0.41771476644968064
F0.8762210064423227
F0.5651632596903338
F0.2690419995666863
F0.32523911677408823
F0.3078424814608013
F0.5713401784019014
F0.3608647432260297
F0.3265426231203731
F0.701953699975528
F0.15329801733362847
F0.3695205907598246
F0.9698379196664876
F0.1897510013499838
F0.0022088131293660496
F0.8097140541869922
F0.9605417640432098
F0.6710162160038812
F0.5701897821839249
F0.013744416911407598
F0.18905495311661913
F0.4970040961382629
F0.5460073580506095
F0.8813286876456649
F0.6321056524499287
F0.5896273042822483
F0.16329578024936453
F0.2486452226835396
F0.5974595733191735
F0.19334242284511216
tp62
a(F0.7415185371989028
F0.6248903046045814
F0.4343327356869796
F0.08477601203028284
F0.9473122908375541
F0.016013276244857377
F0.5815763701902447
F0.34198053289846697
F0.5729283854020725
F0.6067931106969564
F0.5533017757729801
F0.18999847366847167
F0.1971008807451219
F0.5618189294994128
F0.46620876997859917
F0.5979379700443158
F0.5636743801928005
F0.3778418588248551
F0.362408313015113
F0.7099093612226721
F0.3225402193353336
F0.7208163678196137
F0.15490687826599348
F0.5228344182805336
F0.750984281614393
F0.3062597672029499
F0.15981016319108077
F0.6404606615178523
F0.22903769041380662
F0.7617882226935968
F0.6093404156777099
F0.5383268233823599
F0.08323435494904885
F0.6121989058401761
F0.24402041930770568
F0.31647579734415576
F0.7743617954015755
F0.7088390105491778
F0.44884826302955005
F0.5396566243263308
tp63
a(F0.1601711020921408
F0.953356451789429
F0.45818311655238664
F0.5276474663479591
F0.7834872082273345
F0.004958286399918133
F0.20689122753906408
F0.3908775872459337
F0.8187714519529542
F0.742745053460421
F0.5135897005889731
F0.5900739967519494
F0.44465138155648043
F0.26584258548463713
F0.33560366244911755
F0.24920942168301208
F0.8362193590595582
F0.3753988521424182
F0.2333496835905
F0.4033370102789521
F0.6559432040707405
F0.2502518960747968
F0.5095826406695769
F0.5452926695219243
F0.30316699365277133
F0.016772333188781796
F0.9364905827737265
F0.9451416944043947
F0.20373934651757952
F0.4985412606193298
F0.30258630296111433
F0.6605557107461442
F0.8865122893451144
F0.4167838820803821
F0.1285893682567587
F0.03375661865148816
F0.47034438103994824
F0.8458934911376317
F0.620014402477974
F0.6324881641817156
tp64
a(F0.3225089496863355
F0.3016955717984503
F0.83790843983907
F0.9084385001483054
F0.9453569195643998
F0.9709062082188293
F0.19669690124047967
F0.7525253458301892
F0.37424157968502614
F0.9845203741774753
F0.6335222771691049
F0.2299242129239183
F0.4496764877866051
F0.11159037261539595
F0.49370913603844846
F0.30379275972889586
F0.7601157768925518
F0.01009151342571557
F0.3492451018205145
F0.835170033842535
F0.02986337639862413
F0.5897139787653947
F0.7602017723909903
F0.7407275912449807
F0.05450700280693643
F0.42942993389350836
F0.4915504523811409
F0.044210524781088445
F0.9751174009961567
F0.20789327577839622
F0.3483505911624659
F0.18612058412620025
F0.4160985501895478
F0.553308220920935
F0.12199079292847936
F0.25905200981754195
F0.1004027092353299
F0.7093908500906136
F0.16886238236887574
F0.7867201971965391
tp65
a(F0.9041549655549097
F0.45909687445851766
F0.28528516519694824
F0.011412047450915064
F0.6717927166404295
F0.19223523502730522
F0.6272580794552991
F0.7308306319767165
F0.2080634888710292
F0.34327650638726703
F0.7527230796658139
F0.5780725883249634
F0.15609582272643308
F0.5216997234378289
F0.15552866786757458
F0.20811839692459722
F0.28514354383270846
F0.7058911272574329
F0.9192993329609772
F0.867809814468698
F0.35172832430807177
F0.7157394649507436
F0.03217620247909114
F0.9774964074437427
F0.8886510605580427
F0.9386214592159414
F0.41474973575951
F0.49960544406861895
F0.8832654832882095
F0.08204193065432153
F0.9743963537639468
F0.39161535181126894
F0.5673269682521435
F0.850878237159066
F0.9244092390571265
F0.9126897175441234
F0.7599416863888906
F0.6718017220283928
F0.8094039392290872
F0.3959805205012761
tp66
a(F0.955122728231965
F0.40149276193970473
F0.06638758292503721
F0.1419750265932369
F0.7882846479637389
F0.6431601154497092
F0.6012853173104423
F0.45486232738687793
F0.9830343614315298
F0.820502116352929
F0.2698409519301541
F0.992919600224667
F0.3962276258146643
F0.8245127269664723
F0.41873145794939937
F0.8721609068480219
F0.24502971056747402
F0.616219819403742
F0.25749322998244417
F0.4221123759993709
F0.7592571630787
F0.21569354515683925
F0.5936212480045402
F0.9648340695363449
F0.6177830704964661
F0.7837224642130379
F0.48112428807611907
F0.3359978478734539
F0.8656908717464855
F0.5155641048816242
F0.21586804696106554
F0.48089888227121147
F0.9736317511207037
F0.4723665551810641
F0.9196431186737163
F0.34993843750204157
F0.5397573636359745
F0.7952184994074243
F0.7076415765009648
F0.8685509501505229
tp67
a(F0.7613377137470208
F0.8806981280242482
F0.16921795665344153
F0.20014565711439503
F0.7318031635674013
F0.4319525904035887
F0.8403514115742621
F0.9669371434291233
F0.18609474905957968
F0.5523256417657197
F0.08294110903108576
F0.7059749986957953
F0.8290976437183163
F0.13568069587950193
F0.2166333399216126
F0.0024527719859126496
F0.7637047565583548
F0.9015341971214896
F0.29228014940339764
F0.8985462981626662
F0.005531062767987538
F0.7109849878556377
F0.8112868235821109
F0.2184604764344883
F0.3549816219667661
F0.7066861643676854
F0.3045888317624359
F0.7207190742831364
F0.6494054776036001
F0.23523907118008203
F0.36020170815670893
F0.9935814387116926
F0.6873990103062699
F0.4275031441134184
F0.5607975345544515
F0.7467515094737616
F0.6382622659786008
F0.4416695504986783
F0.9153707076970375
F0.632042503347909
tp68
a(F0.3015676561814574
F0.60411579902657
F0.6450094885172508
F0.44215099125072643
F0.382230957720073
F0.8562969100853342
F0.7908608462371052
F0.7633001586599781
F0.06684140901492519
F0.3887091766495061
F0.03775810771381316
F0.9261505618301406
F0.1408314588222197
F0.5663759744757322
F0.68910559978868
F0.9839975603463957
F0.26226545876636176
F0.9627390077800851
F0.9938156611089087
F0.4995254547424297
F0.09149935724387348
F0.6723708425221132
F0.83023348404464
F0.3221513658867431
F0.45543378926788336
F0.21634996100636383
F0.5553071156182126
F0.33470488641801843
F0.2990964529634009
F0.26346666733769153
F0.6255661210512081
F0.21106134971282342
F0.32320736887671175
F0.9423414244558308
F0.2965570642330365
F0.8901898191951785
F0.3461800448835881
F0.07290751349787039
F0.46154773711355557
F0.03764031923392608
tp69
a(F0.584183245662036
F0.003322876668100272
F0.11337993909745148
F0.8998211843421733
F0.028739375944226153
F0.019639642344743358
F0.22400172981206468
F0.04895875625170798
F0.5161833811572741
F0.9103834131202203
F0.9532849245564452
F0.139184870288789
F0.4739603001168745
F0.35962185676347436
F0.25170353196029016
F0.5683505450075585
F0.26174733919804116
F0.7475818224955505
F0.07297379508729906
F0.2915079132609055
F0.35879706341195283
F0.38839142972637763
F0.33682028852391854
F0.4628887006485426
F0.6301671846311576
F0.16236916883695063
F0.645178722852883
F0.7445737518162894
F0.04248983351055313
F0.8273893429993768
F0.2229394863382801
F0.25729636707204195
F0.09127222251444156
F0.42540694447319427
F0.2667672167964835
F0.30568513973142175
F0.3810310847810069
F0.66390496770776
F0.7914496191986768
F0.84967261539134
tp70
a(F0.07378183952209305
F0.1587053308678582
F0.5111089774659737
F0.4260590502634791
F0.004714672195752834
F0.4573421851443741
F0.7528706602214703
F0.9685681946273724
F0.34226079023314715
F0.45619263331334026
F0.5512363314274484
F0.8003439837520698
F0.9115153739289632
F0.4313033621160184
F0.5119718192671131
F0.4596173087877441
F0.6748253364471409
F0.25556572802863065
F0.18782276353437988
F0.5008741034763228
F0.18432914837173198
F0.9756200361490999
F0.7225376453391547
F0.288212795202345
F0.226307048287834
F0.5836828669573826
F0.907739543231637
F0.5130151675802299
F0.5624358293265338
F0.3439904909031175
F0.32168088872383427
F0.8956107690709854
F0.6766014110535536
F0.6015905636049296
F0.47216602285685483
F0.30495967760470466
F0.048917780293737834
F0.5298088912432566
F0.22085764754857662
F0.6437751340623984
tp71
a(F0.7043770869085973
F0.4309872021051925
F0.9158710954969421
F0.6838705216991399
F0.7154680038500261
F0.9786688997983941
F0.9954495735475949
F0.040317196791348486
F0.2213322282526583
F0.7772381024784285
F0.3730298389177935
F0.6909261118265096
F0.8690671462288841
F0.902545853324207
F0.2356997564282285
F0.2804585528292389
F0.42148039950743166
F0.9586123776720434
F0.24709273370630036
F0.8388892570289922
F0.5249046163626292
F0.9595710017858183
F0.37511671320416295
F0.4003045315551742
F0.8877939979538603
F0.7053868407599171
F0.47597754402336623
F0.15076514612854597
F0.5477753871185335
F0.6241311813977
F0.23645395847661954
F0.30867962110952396
F0.07317027727257241
F0.6067700970228407
F0.3650264070398822
F0.9115225172477216
F0.16554125070046766
F0.5780536244001915
F0.979811387995348
F0.7143326737856314
tp72
a(F0.4702367917645207
F0.5972435283063369
F0.276256439855634
F0.48509912878075356
F0.6075703421747257
F0.11518420675732843
F0.8636145206793598
F0.26232997850209616
F0.9213005921335274
F0.5422546590244055
F0.5188898210431999
F0.6573195086756819
F0.35697774884820743
F0.5313153609065516
F0.31195235652038467
F0.2749618952621419
F0.4011914994102408
F0.5383903153001046
F0.6512106320626323
F0.013378650733280928
F0.714390566764542
F0.9169510214454848
F0.34677480165885344
F0.17528024511293405
F0.2334544407579946
F0.025608026326831457
F0.6975996737827103
F0.7539847859842395
F0.49194726023594293
F0.045189660748007676
F0.08899601063389984
F0.9859725633746276
F0.9850181065196275
F0.6731808161981522
F0.9288992249722005
F0.8592533178572093
F0.10350226528154938
F0.32594124455227713
F0.9503114094102753
F0.37754171466580044
tp73
a(F0.3967552722144013
F0.9044129096140787
F0.5390421259776486
F0.4742888051849822
F0.8928230781617551
F0.45245389710993367
F0.3189158434496795
F0.33447633236002516
F0.9159554776462389
F0.346914493723932
F0.6504826277966604
F0.750996563396083
F0.3807490173556104
F0.465694652251024
F0.18993143943134283
F0.34321096050141153
F0.26806602785010036
F0.45057482013849115
F0.9953196375426965
F0.9105985537015258
F0.5287366692902642
F0.18209847094810339
F0.8834991204791598
F0.958115158638133
F0.9839839252816615
F0.683670910665027
F0.05189749407463551
F0.49793658061251744
F0.9935104446689292
F0.21070123719863054
F0.35979014100232987
F0.2649976922047348
F0.6813482188265879
F0.6921117583479859
F0.8777568323773878
F0.6601630436760347
F0.38278655443143783
F0.24338830820875212
F0.6070653649506338
F0.1442627437281323
tp74
a(F0.5881498475309329
F0.5114130618844174
F0.6751862712419082
F0.8215751157169358
F0.7022051805695122
F0.8718828444240985
F0.7376679786441596
F0.8027041020843189
F0.8866951272865828
F0.9259501229021797
F0.5024871471064337
F0.35486769526403483
F0.48073300653827944
F0.8440456002282509
F0.07780347785677844
F0.7282484279385664
F0.19750959973591153
F0.7434288099700266
F0.885261971875776
F0.4134905688869168
F0.24545700247471158
F0.3357004180417149
F0.6755618155017649
F0.25555901644410706
F0.4386335804142032
F0.5954138149056574
F0.8597724001763759
F0.42969717731717805
F0.8617528112059116
F0.6238090685299624
F0.8687216778795231
F0.020408334900382186
F0.8417516907183533
F0.6321111719006987
F0.22502905956224306
F0.3530691552429335
F0.5221602722904913
F0.882303406986924
F0.46131679215847887
F0.03959469794690418
tp75
a(F0.5810847776689952
F0.8574180386013283
F0.1807904721763326
F0.22196916885550322
F0.3755022073103371
F0.41692479189436527
F0.029567582958605954
F0.5548143994267872
F0.3430012957259658
F0.9523241256940412
F0.6109746122853945
F0.7012394708965147
F0.7388830149625589
F0.763528825816452
F0.9307652225171905
F0.672444083521043
F0.9793988662011947
F0.21511336410998072
F0.6926332399702307
F0.8021353635471534
F0.17892160528612322
F0.515735966420371
F0.9083344518662189
F0.9048316439543712
F0.726349932014876
F0.9682078757168592
F0.284765482574041
F0.7452078536315512
F0.47010781132002355
F0.022119697619967238
F0.5052413285518099
F0.3052270591884726
F0.13623917431304922
F0.7845136638835206
F0.7743915838440589
F0.687172229999985
F0.16864028612602444
F0.1492840966383534
F0.7463335362112234
F0.6706808343058613
tp76
a(F0.1038833878475609
F0.01886861036340648
F0.4259753922377151
F0.23660543605491646
F0.9971336905921727
F0.5244381849405108
F0.47710940774353006
F0.10586839715422702
F0.3117408194123569
F0.9649589598479017
F0.7175387566045939
F0.29341164821665877
F0.364204774870741
F0.32663829484294393
F0.07847442128953841
F0.6578858875357112
F0.02253334167090304
F0.38607570359933774
F0.9578426623110716
F0.6177708864276302
F0.16838164775596065
F0.2111220259505141
F0.8954862038444775
F0.6679635022462092
F0.7497527588233196
F0.6854992462108074
F0.36302867321848553
F0.3766491085413016
F0.9857426344040546
F0.2543026159527315
F0.4580394963345099
F0.9346951834406557
F0.31641223815756025
F0.16440218837067067
F0.5523379876868992
F0.5456327417043014
F0.403087123765413
F0.18936913000530486
F0.35918589865130013
F0.3853599356336368
tp77
a(F0.5898772420935876
F0.46310046601453403
F0.8929170674025755
F0.24648276523615242
F0.6328501149032141
F0.975661825425324
F0.9245409327564826
F0.20844095264663198
F0.6463238707958769
F0.648589519836671
F0.14948830418838177
F0.005088532671008061
F0.386041663047601
F0.18683543786997336
F0.0036451664782356508
F0.4361007431984587
F0.3789887242558374
F0.15641912530524282
F0.21047283933645544
F0.4031543151660967
F0.3738751945422938
F0.9308811501071115
F0.0847412814644185
F0.8240819656503379
F0.6097164519291661
F0.8021268129339648
F0.9094819637420928
F0.6092903026834575
F0.4551792806231283
F0.48433417234290843
F0.2123356454281442
F0.7904313066712775
F0.5854287284357126
F0.28250954396598504
F0.251167611878897
F0.7008074360510876
F0.8358329100930763
F0.06360479061677726
F0.6182847554563253
F0.22719433105111198
tp78
a(F0.7375576010097162
F0.1624755627968847
F0.9048542808118221
F0.958317818275068
F0.2670492806832544
F0.6509713820086109
F0.22789558883538297
F0.1936574629721779
F0.6992452685937601
F0.9135830840776676
F0.6221777178162146
F0.06954288525284458
F0.11896570306866183
F0.5316062911926279
F0.09757444232656554
F0.82199641351542
F0.7750189118692248
F0.9049781326721531
F0.9780638205958959
F0.7033831345383732
F0.4926686684827227
F0.05531349881290959
F0.5181955692369181
F0.20971020129852613
F0.13326444072383437
F0.0028879182647872925
F0.8656161505402478
F0.3653572359546249
F0.6176849115766854
F0.6887325606179053
F0.33505729059799105
F0.5274772821498226
F0.5061950905310995
F0.7101861854577756
F0.08024826560321086
F0.017859383289850705
F0.5802270820096783
F0.11740395317696495
F0.038370477687591276
F0.5837240252234004
tp79
a(F0.14475760675968752
F0.4933271826212472
F0.7003018247132146
F0.8299193346169959
F0.7570070053838863
F0.006124394650139697
F0.5028892955634311
F0.1761393691998151
F0.18534334357239934
F0.1147328446906336
F0.3903669551131447
F0.5016321768983064
F0.7467607267982781
F0.46321597288974414
F0.45038686326301747
F0.4443127195753859
F0.16714888155008012
F0.3953782385574255
F0.5366871166397574
F0.6141526007542543
F0.6296947884245764
F0.7218693867815433
F0.889489969799058
F0.49939588513098965
F0.8914176617212068
F0.08567018431096951
F0.7585851588547249
F0.1859333438559876
F0.8953214176612725
F0.5406147235085754
F0.3236707777778095
F0.9877361194114738
F0.9112527509836663
F0.5573239353357259
F0.021273715499974366
F0.5210289674374406
F0.12792702556961733
F0.049708840495087836
F0.3829590756698956
F0.0822403213903693
tp80
a(F0.6174719285334233
F0.45451545231321655
F0.5647064528041026
F0.3264843296215918
F0.8937057318987314
F0.6926817333769719
F0.04797858280767364
F0.7095906444020876
F0.20632045451910974
F0.36297162735198785
F0.6649238007626134
F0.9303203896084373
F0.01834514133770937
F0.5143166822758267
F0.9047957795239262
F0.02052098987835338
F0.04877402231360661
F0.04100944041550325
F0.40103243034272873
F0.8773840100173362
F0.7030823678754733
F0.7590566849453182
F0.3090248908661287
F0.24066655095115108
F0.21220448787641777
F0.5825798861815471
F0.002348489209537341
F0.6443318612427862
F0.536201384030137
F0.07925682753462693
F0.6542476862267798
F0.3677926185902409
F0.5066496289860125
F0.3899538013017163
F0.084320743324379
F0.3428207162743685
F0.08208824566154715
F0.9109395555415348
F0.05933163229284755
F0.253134540533578
tp81
a(F0.89970177511324
F0.0453946289509467
F0.02360040443726219
F0.6226070406307301
F0.04667597959841352
F0.37048397597232385
F0.8508778079851275
F0.8139047345106998
F0.5300008199456473
F0.5388287648022435
F0.9035238541545938
F0.7679828210797359
F0.7479283555792144
F0.05606460030864058
F0.6732933937447277
F0.8684125518679466
F0.6263457154427609
F0.8622213332490369
F0.5432314752093458
F0.3344435743552794
F0.3555811687689203
F0.5549785499160683
F0.9688552697442822
F0.18149861881000573
F0.6285735831654391
F0.23809807874015376
F0.667108158004427
F0.7563122706044059
F0.2167058914601473
F0.019476296841900442
F0.2700377108054737
F0.005485328937409162
F0.07521298973203516
F0.26813260285527607
F0.6900069824722918
F0.5559209625442594
F0.4281595285876705
F0.4166800280526972
F0.4414790664209337
F0.1418110166215042
tp82
a(F0.4347943305824189
F0.4654030687710462
F0.8230841568629874
F0.42480845220224117
F0.15568881605080942
F0.5218985454233563
F0.0932829769778366
F0.48292236447619497
F0.2793233856758802
F0.3042150534608675
F0.6403443817370787
F0.8052920982536604
F0.34796897717672615
F0.8873581686474229
F0.07947796584802069
F0.42989062984827064
F0.7696961214723802
F0.09906032143885735
F0.46807707602452964
F0.9052865506629297
F0.9459649565278937
F0.8607222685797838
F0.050125593630394705
F0.9823563181257766
F0.22092753356894523
F0.3528258193416822
F0.6803727185335866
F0.5428188638336982
F0.6005793709125351
F0.7378710012049571
F0.8266513902387843
F0.6574623963855418
F0.30750142339693654
F0.06542677396799645
F0.1635343558378033
F0.1589601446873613
F0.07479554430500335
F0.26917042038843164
F0.6512503414033646
F0.33410566179734824
tp83
a(F0.9180798563910872
F0.8545764631357342
F0.7381056889111278
F0.5947635071495129
F0.8006156604202262
F0.41288395905455333
F0.3616916851906946
F0.17039983794407787
F0.06899353536247455
F0.09647924227027127
F0.7848819656763713
F0.6441915213967023
F0.9889543227960916
F0.9054471114692408
F0.3033881965288546
F0.1509700328462178
F0.881870801232632
F0.749994984169496
F0.6090633149167669
F0.5385657228907659
F0.367742881516388
F0.22773330474094045
F0.07032287965808126
F0.5472268742859064
F0.5513311923584262
F0.33357939031368433
F0.02456476840258226
F0.9402610287269706
F0.6039624370719048
F0.8589317348660989
F0.8103883680032709
F0.425293277281937
F0.4329816782009416
F0.5112892739801389
F0.22622919678376108
F0.9646431799233229
F0.5066886931194792
F0.08466488888733636
F0.561952524165234
F0.49108162816124
tp84
a(F0.7830315619772009
F0.45933590420763204
F0.4938231166210191
F0.31929151582917126
F0.8166817531223891
F0.35661739609144505
F0.4219401676552055
F0.758956635846789
F0.39893984411681804
F0.983490006558234
F0.3764146702401213
F0.2657275428804873
F0.39963244131506015
F0.8085560594484
F0.2763155380142124
F0.3349274093409189
F0.15482667654294036
F0.5335471703663313
F0.11261545705668385
F0.5833307476481349
F0.8694423025196504
F0.5986569076678843
F0.08087107304248442
F0.17978382338928445
F0.0012770364714099758
F0.13268087488820823
F0.6293793890037536
F0.6529595553996068
F0.29025445722193177
F0.887506909352919
F0.7655985595013568
F0.7209638296765859
F0.05376506768347811
F0.06275021580626694
F0.16649642656053654
F0.9724497309461965
F0.8707835199266056
F0.49573843870581835
F0.8057489084936308
F0.5292049880337036
tp85
a(F0.4263509702027378
F0.5374749184995955
F0.35080881685953136
F0.23331107003775764
F0.6869459090151647
F0.7987196765898544
F0.11075553377774539
F0.31803148609926113
F0.07973706371796119
F0.19627563022045824
F0.19661764140656424
F0.8396345318241972
F0.6922037416869087
F0.8041698815244044
F0.27442049955103365
F0.5707448276854791
F0.8435735794997133
F0.08988670547636335
F0.3269564698889059
F0.5955530327064761
F0.06173453635784776
F0.0013509936375419862
F0.43094183109192363
F0.7391574664769696
F0.4915672877059647
F0.0336222034207152
F0.051365986299873656
F0.767134752153954
F0.13093232848904723
F0.24390451876220587
F0.13668792114167894
F0.8753862922200185
F0.8698049018330533
F0.9218519592738775
F0.8222082741522454
F0.08985449798387046
F0.7301450145966012
F0.2634919973959665
F0.21902689335421133
F0.6577095726663876
tp86
a(F0.19703203106170009
F0.4856524031086482
F0.5233544525288488
F0.773776521141359
F0.34818363944838704
F0.7574237353291542
F0.34769283593565725
F0.7814040786986611
F0.8487048619916885
F0.40014247134491965
F0.28726752956420054
F0.8659872909277059
F0.17388335407908806
F0.9478112560152723
F0.7682479363068047
F0.16828873915446974
F0.22935836807958732
F0.7473640635043782
F0.702409586206195
F0.9579661980027907
F0.789253016323691
F0.03539699610481761
F0.34245523261599686
F0.09555371816490599
F0.8286233942764246
F0.9515421765545727
F0.4182563940359596
F0.8758062001769943
F0.3615803034211763
F0.23558069775767054
F0.5973604075650103
F0.44432526234292724
F0.20410444820954865
F0.3736040781644634
F0.015412205669535828
F0.13089271721030482
F0.4512924715930754
F0.3342824293957041
F0.021942265180948328
F0.5721255198769056
tp87
a(F0.03429574087100429
F0.7595231395808695
F0.8792663276045506
F0.5861178946214903
F0.17535701500456735
F0.5447186493334929
F0.8972861034857413
F0.012108443859222828
F0.18427349632442835
F0.3805313307730118
F0.06732273949286605
F0.5767522793481634
F0.22751677886809551
F0.6834493936143524
F0.7977925527743073
F0.17209678379600746
F0.9450443745814904
F0.06283081023171688
F0.2558536747679564
F0.5235751080781963
F0.42674374764551815
F0.2905920856495223
F0.22983344185116572
F0.3686161664167702
F0.5435451740595175
F0.11304221899608358
F0.43821820987359383
F0.8606655780977998
F0.6591015419572687
F0.6846667835571539
F0.06899473502064402
F0.05857867138946804
F0.5040744042652242
F0.7514323197716012
F0.6998386395951268
F0.9983309211718896
F0.9984952889686264
F0.413336608189105
F0.6092552129343849
F0.35147492654958834
tp88
a(F0.6484762579387449
F0.7640395204351024
F0.7153133737460606
F0.11503667471963785
F0.5486626492670214
F0.09685360277288424
F0.10210731842164944
F0.2509088756146379
F0.2012516994450806
F0.895425575333293
F0.48043880087909363
F0.5857966069089839
F0.7358262155392769
F0.1711808286840948
F0.11002862561716886
F0.7304339360724013
F0.11162808000141877
F0.7289813574943186
F0.3990593302678048
F0.9461216049463467
F0.13716360930388738
F0.9580849416786646
F0.8212058106977422
F0.47832603851046196
F0.7933967320924192
F0.5885310384844105
F0.41221957252734476
F0.13814504139111927
F0.6291794457385335
F0.8251208408601727
F0.33983277359281283
F0.9067026837168141
F0.6289593729248828
F0.613719420114636
F0.52637614390227
F0.04801811467441908
F0.06371724293616465
F0.19779203578235738
F0.3583404211993396
F0.4762263692251638
tp89
a(F0.928550102420624
F0.1252324153637332
F0.42164661122713176
F0.12556833667930078
F0.2139050759930773
F0.6863089017238538
F0.746960272324481
F0.48164463410264835
F0.2900872508699325
F0.4702077428321194
F0.4886460698999766
F0.49480798494433076
F0.6261513200021722
F0.22902262750529745
F0.6942705029403465
F0.43007244042791437
F0.010854561156837694
F0.8705617710778046
F0.9264109357437962
F0.384293451286602
F0.01640692372618846
F0.7374941037338489
F0.08777807144942595
F0.8151756640088427
F0.9888683641646738
F0.21072802818874714
F0.028194504597331416
F0.031937807594503154
F0.3232068726083511
F0.8701946476961582
F0.43449355842037973
F0.04435717441267528
F0.435622302486099
F0.004724579656255945
F0.049812071303919514
F0.19075072101606083
F0.8927063983051815
F0.6829901155714238
F0.5343418288912258
F0.08932267572677899
tp90
a(F0.4234376530094688
F0.44186685042651064
F0.18797690923735577
F0.15204016830401856
F0.5192879548422159
F0.9906705085360804
F0.12954248096862642
F0.4248989698177664
F0.7128125303668771
F0.7605296887071692
F0.9729029434795297
F0.2903216262836066
F0.3939489570490502
F0.6431902698610467
F0.9133388395863187
F0.24618118441470382
F0.18702455770693616
F0.5899956640659859
F0.4905708553805114
F0.46794194417774293
F0.5479920554889696
F0.19152563841102388
F0.7045391471534964
F0.055379643541609735
F0.18860439472331714
F0.3024518040905195
F0.8966476204960128
F0.9694629114732161
F0.935062631257955
F0.04856369737032762
F0.528624642944191
F0.8328885815544159
F0.8688752304112952
F0.926836807227314
F0.3288142717354112
F0.5527541696222158
F0.5956961906342391
F0.609126067309181
F0.6632792234075271
F0.012696159740080981
tp91
a(F0.9118888640156461
F0.4342938714341512
F0.47969142988792224
F0.9793559989519774
F0.6954749538450824
F0.5172208658455443
F0.6591513814016046
F0.3870538981970092
F0.2488057962357314
F0.9670607675924531
F0.9995299112832733
F0.06433614632964679
F0.7951922491903273
F0.2960033683884974
F0.6358258201753979
F0.7236128354939413
F0.6297678186156639
F0.6661894607446567
F0.08047044288464344
F0.37161412614771316
F0.5761332903104124
F0.3140033257611884
F0.5904880414929347
F0.9356639953643853
F0.847011722951903
F0.10023620923327747
F0.26423579524647156
F0.04252621682243174
F0.6432356908441673
F0.1629281167827472
F0.4886770782295674
F0.41009954994722897
F0.13528591953104308
F0.7235380138351997
F0.06124467934853073
F0.489592831013711
F0.34578245931068896
F0.5341722904578569
F0.7403465247609771
F0.6230474840392284
tp92
a(F0.6467022768472822
F0.8456593446464118
F0.3989697157724702
F0.4658579327350636
F0.4505501478013141
F0.012527719641203361
F0.10263373844640233
F0.6040648586268499
F0.8796110086843943
F0.5507949899256632
F0.0018092387619138561
F0.5313299257585605
F0.13877811626349712
F0.009546665071416549
F0.16638380093792948
F0.7482850240855078
F0.09320238245845847
F0.8592583609808343
F0.7804707035198472
F0.9765445439601731
F0.3782680974496536
F0.7251852276494533
F0.05686103155661126
F0.19141587545929506
F0.010864528542075869
F0.575465184325014
F0.9190225774702633
F0.3742456601702633
F0.5906237657120653
F0.34531300139982335
F0.7067595980669898
F0.6526511299355203
F0.5803584464065501
F0.17989748521281157
F0.535090577001651
F0.258781176789041
F0.4598267991585011
F0.5744209110906048
F0.9210669986184652
F0.5067514532902744
tp93
a(F0.8256688232416438
F0.7883394134622235
F0.20975391987019754
F0.37628083623908604
F0.11793409836562685
F0.18358025702256575
F0.39014501288682524
F0.23449322123043181
F0.38850519053458976
F0.6075281221448076
F0.8143675947916384
F0.21888838159809432
F0.7235744074726707
F0.24231268465003364
F0.7611314163508762
F0.3505772737639562
F0.1214965873090148
F0.8711205570748347
F0.09206823966382116
F0.7731076545859552
F0.8316754404734527
F0.1924482586993772
F0.5158186537603828
F0.935572647391789
F0.7243187593932046
F0.5140104384389614
F0.5487925064695148
F0.677572396909072
F0.9824139149321383
F0.4988060686312217
F0.5490570091192319
F0.8725084404212347
F0.5861189019312866
F0.15670875166672094
F0.5911986755729846
F0.6802234653633225
F0.9141473462577766
F0.9886084508588827
F0.5030620462534512
F0.9597303108460603
tp94
a(F0.5938138586068723
F0.27770260193700413
F0.36431864297197836
F0.431150901893645
F0.3722385854535233
F0.7717610916567875
F0.3839825707373178
F0.35461580809666415
F0.5982886529185109
F0.22983117296461497
F0.17510512136751377
F0.03927334466917398
F0.240691952659709
F0.7123981463148422
F0.7516656508676888
F0.5615437211345755
F0.7050635934291771
F0.5070702236989136
F0.16309936114444412
F0.4802072786571111
F0.47239213940510416
F0.9248683851884766
F0.04646218680660252
F0.07103588504215252
F0.6820273727826793
F0.6680163689487583
F0.5994841417448559
F0.24773558815036034
F0.8972850293408415
F0.5476177320640734
F0.188715239206514
F0.29756893122993666
F0.39758604504015904
F0.23171778357856676
F0.06037984130583729
F0.4747026894507982
F0.5030472203211673
F0.9770426278745288
F0.6108999208769194
F0.7357469167955452
tp95
a(F0.06574875676504566
F0.5723965935922768
F0.3529042110518742
F0.2300161518704824
F0.9041791290580896
F0.8132957688072443
F0.10557724096077559
F0.3873686431173824
F0.2206277675694548
F0.47077426137993883
F0.5932656401180878
F0.8542421153645764
F0.33242992735517785
F0.4644173800128154
F0.4072957141758847
F0.4215824847569326
F0.3337259842996082
F0.1339228140153147
F0.38175273754363326
F0.0032354015093003508
F0.9383286858051589
F0.5619220271625265
F0.5449877960941563
F0.08012103574061236
F0.741227398755162
F0.06004893401875211
F0.6427388110652477
F0.015835135383600818
F0.1481510936198812
F0.057385610755346095
F0.561554296790353
F0.9400606231186841
F0.09218302956833646
F0.9020518354544593
F0.7810518317225259
F0.2968005011295126
F0.6170118463288125
F0.00018126395290196662
F0.09974026345585119
F0.9354573868783699
tp96
a(F0.6430585635673337
F0.8789972377421732
F0.23817799106888593
F0.8329290126248812
F0.016438022071655012
F0.7567223352142375
F0.40846178728483473
F0.21950719961410226
F0.5888343141455468
F0.6144858406056587
F0.7163203731535905
F0.14798287776413577
F0.7586053330155618
F0.48701960339015893
F0.3072787404232067
F0.8718558693339408
F0.8095702402494268
F0.5548355334442275
F0.35028759752438043
F0.9506448747764356
F0.4638589012720469
F0.6257281655195178
F0.16201837860040214
F0.6429601800039791
F0.6070002318987259
F0.9576123984225412
F0.735726085711983
F0.9658790798480397
F0.662198572412167
F0.10934886181321368
F0.48230011362671676
F0.6633712103095764
F0.37003905903558165
F0.4527388506167541
F0.06969917406639137
F0.4205909785346351
F0.9663127450186958
F0.28227896618730464
F0.35919753090351925
F0.07090799155109528
tp97
a(F0.9700182579606969
F0.7450442753027218
F0.965659340258438
F0.4841043016809303
F0.0925104340785291
F0.2928191952821543
F0.5434902686636408
F0.47738697750303394
F0.4566637164177031
F0.4420055147627605
F0.48286954224721546
F0.9054197083543234
F0.5518317909472255
F0.832066443367073
F0.7882322426559127
F0.24601720145590356
F0.4960768971606675
F0.7242162642826214
F0.2747104937503746
F0.17834864318007015
F0.2424479639123387
F0.4738776810252944
F0.8861281528930247
F0.2892685802065377
F0.277652128533844
F0.5066872610847898
F0.643971099840382
F0.8685189378882897
F0.3599754146020899
F0.4303520276428985
F0.25986707723331715
F0.30499956798665184
F0.6635626800086428
F0.670904815661901
F0.29220224874310363
F0.1372479928460104
F0.2392801738750423
F0.2964186967956327
F0.5554688336112283
F0.6165248753794321
tp98
a(F0.05348028992249987
F0.6943434800041033
F0.5115289090518879
F0.12968405402946592
F0.17578329322435982
F0.3872631316595667
F0.6785084102346158
F0.12406956387198731
F0.41886197587008633
F0.09466830889524747
F0.38004825147866306
F0.6968646449971754
F0.06264675690039812
F0.13689960491672237
F0.3409260556837761
F0.7086590387052031
F0.5075746567435299
F0.8179514655974546
F0.6384232975796976
F0.6826423872788302
F0.8388304680723493
F0.8476463673454893
F0.28076581752479923
F0.535860812160405
F0.5257492787583512
F0.6772262715244426
F0.7092123114210791
F0.4832944734586492
F0.5979050843676004
F0.5539821917382265
F0.6836224975288244
F0.15633750033286642
F0.913292792317962
F0.13016337930268018
F0.33646501828139885
F0.49531415128641654
F0.6427988620892956
F0.3428687894846755
F0.9751617761879272
F0.5135773848547484
tp99
a(F0.9980817557867784
F0.03810067844871523
F0.6537827705586576
F0.5058430086474083
F0.13268460572519858
F0.6665598846706793
F0.11957244288540447
F0.6456213764222484
F0.21034576291265739
F0.8037457988872483
F0.3519515892755969
F0.4942318647528462
F0.4393223705465914
F0.9080419828282084
F0.8483257221022389
F0.13265784632644206
F0.7203709437357588
F0.9298118207767535
F0.2962443056317545
F0.4282173627773549
F0.8892603834059127
F0.5578922870128159
F0.6622138532468466
F0.8663009185645718
F0.7535241631649043
F0.40244266834034925
F0.1782610435061186
F0.048420477863580946
F0.5722900424047467
F0.5625613750168583
F0.7217570286921031
F0.5308562075585537
F0.22138908601905427
F0.29393451051596575
F0.7801067076743491
F0.619710298926134
F0.13294361511150943
F0.050251775540671284
F0.31835980678484443
F0.7093492857925331
tp100
a(F0.5441554606582273
F0.5858701843772913
F0.07821280299436795
F0.950002520351466
F0.4535974327211665
F0.7517605142043765
F0.128013811763121
F0.4143790819392966
F0.16352930364824525
F0.3078215124342013
F0.6012332296377405
F0.3902708542939851
F0.48622953300555316
F0.050133510782473634
F0.10433106579173423
F0.3022466291604985
F0.1260302601404123
F0.46522121718660037
F0.05622118702572465
F0.23372341447145284
F0.9440000854712214
F0.8906987360769966
F0.8277621232479179
F0.590792823270363
F0.3454814029886474
F0.02643620270128877
F0.38492048652251465
F0.02230453829051471
F0.36555104548640616
F0.41140646955549987
F0.7115583658263682
F0.4020129648214452
F0.3283041317143901
F0.20008736918844794
F0.4674278540364841
F0.6187294661696544
F0.71617208693816
F0.3833512728419428
F0.7443641163534864
F0.2605165839040544
tp101
a(F0.20190923302535957
F0.3031355256913715
F0.16009771441060028
F0.38135509579993776
F0.49076793716023526
F0.8421661591299251
F0.9054692409528803
F0.8011440640890107
F0.7124387535547403
F0.3034197334227019
F0.3280165324069477
F0.8933591581768837
F0.792145580664256
F0.6221582452419909
F0.2761304014465863
F0.1828353055154852
F0.8171666644977574
F0.9645799438641077
F0.25802210100006107
F0.7989014061557783
F0.04483405592400247
F0.6906192472371101
F0.1709347169568437
F0.3279949258497824
F0.46292240197021395
F0.7853449325429295
F0.6283918198904668
F0.5763593440791506
F0.375330061922166
F0.33871542197800264
F0.2908712131461141
F0.8284706201548734
F0.2103723483355887
F0.6587086903671386
F0.2193082158505354
F0.12888203329825443
F0.2819420011020215
F0.13198474446627517
F0.880081845644989
F0.5918504391290031
tp102
a(F0.7933711721347184
F0.9512715053612949
F0.5648652888368676
F0.5262904895899134
F0.05656927906597253
F0.004891901555723166
F0.11424838435548978
F0.1010937538905714
F0.7225308533321831
F0.6653977802408102
F0.04875207408067972
F0.04644325574186425
F0.7460578122497201
F0.73375002973775
F0.3200797338856959
F0.355604464512266
F0.9364274343169808
F0.03124011535756477
F0.3067155767396569
F0.15015248396126757
F0.8042656917917531
F0.3905529697627199
F0.22280507825323415
F0.5516274062356747
F0.940704399595722
F0.6374282190449604
F0.131077715093607
F0.8024271997105222
F0.4885198237304803
F0.6189561482166815
F0.9679197136002694
F0.1892977260156432
F0.48479895601301337
F0.9901273260604174
F0.17405222567203082
F0.11638041446497471
F0.3669933842163162
F0.9517058023122009
F0.5865515990163206
F0.2091763609787627
tp103
a(F0.7926663007958156
F0.625635129287562
F0.6218882030381461
F0.6975103093480609
F0.27058169750769656
F0.6993163422383045
F0.872839475979133
F0.9655985517738702
F0.41037946438123796
F0.5826298880397326
F0.7092079979062388
F0.7240186926078162
F0.7549009358248491
F0.86587555645741
F0.8760237388748483
F0.9287507247055072
F0.5425767980753413
F0.7293802698955091
F0.0341122478615149
F0.7717687201801824
F0.056169277015741925
F0.6626152413791834
F0.45847643384649484
F0.4129915414084846
F0.05366601726613629
F0.46778452225556955
F0.27930435662244546
F0.6473345280315521
F0.6190895189985217
F0.7755426582222413
F0.7345481176167455
F0.09528233619830517
F0.30980309487019364
F0.9752948856983544
F0.627991133361166
F0.8801984388193564
F0.4091847774758538
F0.3105171419509466
F0.27039566422613603
F0.8552130917986699
tp104
a(F0.8971123139836603
F0.86796744176816
F0.11483096033431806
F0.8543533510313651
F0.6946472306121068
F0.08976673686354852
F0.07979197224104917
F0.2050960274712048
F0.26418165419458195
F0.08403294235284231
F0.13698183310437184
F0.5861619770833113
F0.9900258949546124
F0.5356838414091329
F0.7114744806416863
F0.2353980713863404
F0.28770072407113656
F0.4145820634127133
F0.3895284030362768
F0.8061480736674909
F0.37537824540013875
F0.2442993105056671
F0.29157958189144306
F0.7445084482293975
F0.4041467990112081
F0.8806841495451022
F0.4968932167571257
F0.5436338942986451
F0.3571084914467174
F0.09589426897193098
F0.3228032681306251
F0.710331240141826
F0.2203824547303762
F0.03644207164553126
F0.7168052265373862
F0.5334498825719951
F0.8679331294505166
F0.6931018168154809
F0.9979245865854877
F0.5156274962134864
tp105
a(F0.1259709250043507
F0.6824911564743402
F0.2596950066528685
F0.04337513727751474
F0.17884852602131018
F0.8190253471610198
F0.532668178980657
F0.7521293665417104
F0.21101701940084505
F0.7580821200528863
F0.19302734638451613
F0.12033526397261718
F0.7878668520908356
F0.14084705743349613
F0.6543834696542158
F0.0678652592782204
F0.6418039721141765
F0.9398733939505232
F0.5790965431406064
F0.4825201543544677
F0.17348663579753043
F0.9920598905514529
F0.5576023508804698
F0.7314245000750293
F0.3824257689671894
F0.355581493776186
F0.6951471254060525
F0.8190252724563498
F0.9659938700125721
F0.767668449577895
F0.46032586049998747
F0.15368658936237267
F0.057304431891142316
F0.9156714671563594
F0.8411070288168657
F0.7914126995630555
F0.9735146643453553
F0.8639569236512405
F0.9636562076343926
F0.23393821670296677
tp106
a(F0.6801034439321223
F0.02853855607804745
F0.5818155285560395
F0.5365202697894716
F0.8512499502984063
F0.10710595237358544
F0.6908233240854398
F0.6838115995666508
F0.49037187509987223
F0.12215525105995562
F0.2540335022677199
F0.2422530626750875
F0.38728443512016575
F0.019141489865824868
F0.7227723701792006
F0.971333595616907
F0.12573154966462485
F0.41356161097967337
F0.5536221079161351
F0.1479781600192398
F0.2622217932676393
F0.6797141789283907
F0.6835894216969659
F0.3336337397416276
F0.5828117610531728
F0.7798986490368734
F0.17857865691474017
F0.013069453108734974
F0.515782742821471
F0.2750046771716059
F0.13908598789114268
F0.5821308523386366
F0.35295982605019616
F0.2933652855632757
F0.23124152737849146
F0.8965184223083079
F0.31449101520668066
F0.9324698639971084
F0.27641825176173374
F0.8634334422587214
tp107
a(F0.9569357242749956
F0.27305143853111546
F0.3578376554313646
F0.636978014471179
F0.0862865523045594
F0.7743251241438361
F0.95928243621413
F0.8269941500965275
F0.9234033176106237
F0.15053479767522604
F0.8244628827240559
F0.9112918776265387
F0.6909788460043264
F0.2270534979560952
F0.16135655874703503
F0.27791494960348506
F0.5721864987953232
F0.49260316717686103
F0.5811047285214813
F0.4654909719699999
F0.5630408179318949
F0.24515895358052575
F0.47040602175029933
F0.9276967296458555
F0.18553803124120205
F0.780589784546421
F0.5960948097696486
F0.8466165376072657
F0.08457065479407411
F0.8250640101257164
F0.525137286462539
F0.40435139910992446
F0.16880299117278363
F0.050908983688043974
F0.004124744821822235
F0.988035399868253
F0.8349932440972667
F0.7912996144787215
F0.6314108450835249
F0.28695738041827534
tp108
a(F0.35636573131759386
F0.15235492370057568
F0.316347880849397
F0.2969016708944723
F0.07769957678800465
F0.42389373174017475
F0.6960217443867913
F0.9975303898982887
F0.9535915578809601
F0.07554236391759717
F0.15024840369745862
F0.4293986139683065
F0.5624022684255577
F0.6156571053610843
F0.591973543340993
F0.0836548142789848
F0.26373357414705
F0.34394118697176146
F0.4205819367350182
F0.27093030885683556
F0.1502632989781103
F0.5844952786149792
F0.3483830136081252
F0.5727102895212053
F0.9113180731155776
F0.4809715176101468
F0.5501381530267639
F0.23215689635156478
F0.2907082411667109
F0.5979766557504338
F0.26993147807452356
F0.6305971237239785
F0.957975985186697
F0.16291505726882338
F0.09967974596301743
F0.14930928298323976
F0.8962663094146637
F0.2295238775867503
F0.967136394999002
F0.3159249872322586
tp109
a(F0.10146042731007998
F0.6922826837496829
F0.9814329849211064
F0.40056761642218386
F0.8691526778066946
F0.20788716346765201
F0.24054202744192554
F0.19134093598181567
F0.5928843900078414
F0.7980904179037536
F0.8423200267116715
F0.8152843207489301
F0.3114772041859494
F0.5919137088946882
F0.07217307238747372
F0.6639581007826929
F0.7784069018687058
F0.5864470339807396
F0.08166152827688611
F0.8082031657535008
F0.1564152493309796
F0.2395430166493231
F0.8871675517362724
F0.42746231108766153
F0.7460094287174399
F0.9228222097869438
F0.530730522399231
F0.5905002311795526
F0.6788220844947385
F0.6085397120649851
F0.05075605953187212
F0.1367237057201649
F0.158093778520616
F0.31062763279026717
F0.3816014320646426
F0.35730512880843524
F0.37583685515344534
F0.09700210622310845
F0.9591929502054175
F0.7185567947414133
tp110
a(F0.7891645929982787
F0.30146604074050865
F0.3765917879844758
F0.0687933698052915
F0.6759436829509778
F0.783648269485056
F0.7023518247470407
F0.3893868173813526
F0.3704975447118388
F0.09750183830454617
F0.3039799893091868
F0.5508231804039603
F0.05378035615605525
F0.4169271095825565
F0.43692886639609385
F0.884755707787414
F0.04592333767757917
F0.19243368251724702
F0.03651331629735277
F0.8018873913652728
F0.46088487075828855
F0.2459320524137567
F0.7571455907629884
F0.2771531034778606
F0.8724593602000016
F0.9294057203236072
F0.6855813611696043
F0.4015161578511498
F0.28784642265613114
F0.8347605490905363
F0.6307175308171414
F0.5488819884502569
F0.1147327310195011
F0.10868062730235417
F0.5630965089423169
F0.6771681892985927
F0.36722803024197936
F0.01681354456023154
F0.300880110870982
F0.6266365922816403
tp111
a(F0.5408037021365262
F0.10813015929112912
F0.457870361668387
F0.7589077821782316
F0.20735891976870435
F0.160938988893089
F0.3720211017563234
F0.1673362608577863
F0.7396790610037841
F0.778404643553205
F0.9776694922980107
F0.6662062591445664
F0.6638297666043431
F0.377946029760458
F0.43112325812777974
F0.8272719045516311
F0.6595522743413043
F0.7692663150305091
F0.5233011839409875
F0.33838692409845317
F0.17876204710895283
F0.3711164345513783
F0.3914192023407076
F0.8047913020870286
F0.3806762007066169
F0.6470686933262365
F0.9197870106331175
F0.4914393842233846
F0.8582434475080976
F0.21363356288761504
F0.3225750079794082
F0.48985331378487496
F0.9179496696524281
F0.3116993505377179
F0.4793233172918072
F0.7859118611748751
F0.39546540824989274
F0.7744271637893059
F0.46517030191318354
F0.36560870067638707
tp112
a(F0.9459597011290938
F0.6944958070957052
F0.49109778710644936
F0.7696207061733449
F0.1963907669620557
F0.07934012515588595
F0.37986147477866883
F0.4738721327863541
F0.47473149362799083
F0.7224941139976307
F0.5978909688363929
F0.20989974495146857
F0.3277472524225188
F0.8740896980329084
F0.21283326380018175
F0.251344382665469
F0.8274425249073832
F0.33885857718632006
F0.8437251239311062
F0.3855547615338619
F0.8364454658454528
F0.8827210465808993
F0.9548501089391663
F0.5697333125306571
F0.38497977607976686
F0.4753161052795907
F0.1278472014316433
F0.645901030258677
F0.15028065977281135
F0.8018086633407396
F0.06176856460811042
F0.5482973256462811
F0.3299308602759433
F0.01380607421214275
F0.1636535180817269
F0.2456886911671914
F0.45971066819953177
F0.13923219166442857
F0.3517247860053597
F0.971963309920788
tp113
a(F0.5130296041178809
F0.35484937977367426
F0.43997302130852467
F0.24906656512148628
F0.29150761404006253
F0.4951819889566291
F0.39536040944752093
F0.8794224433094295
F0.273490424780499
F0.9195617076157612
F0.9765504929572296
F0.6571891054948116
F0.19240684106822026
F0.16755795311497845
F0.3367587839979268
F0.2801924533403093
F0.8052523562679811
F0.6711850844965547
F0.6064680991030831
F0.600092827521754
F0.5996164059912874
F0.7959689894617408
F0.6675210805622099
F0.43557856333120804
F0.7570138761077626
F0.5154293146526898
F0.8663669595518416
F0.49565997762981717
F0.9834440623038645
F0.020567643229842947
F0.5392787499750152
F0.07122142715174051
F0.1805196283166638
F0.5735610891206716
F0.6345298763217281
F0.6252219199945552
F0.48913007375097084
F0.7819082054451157
F0.4880093583190135
F0.39415283811089197
tp114
a(F0.06973764343069255
F0.4686880803095944
F0.431691413530893
F0.8079238239164559
F0.07634452646608147
F0.7964389567528877
F0.9906671823052595
F0.2442458454126063
F0.2952017803784257
F0.149843812509736
F0.5606860602932517
F0.44735190503970446
F0.49925104791419783
F0.535945056238142
F0.6804527355987604
F0.7372274393588139
F0.06011407692043802
F0.5233446150320555
F0.8434836174157558
F0.7121816073703435
F0.4688275674331922
F0.4038038608955361
F0.7475289302909651
F0.27018758798426934
F0.742944129809388
F0.18561036684397603
F0.05810700705869798
F0.8391158765787358
F0.8245546321526672
F0.43918915326437
F0.28942433000880885
F0.40540665349775484
F0.12916930387391123
F0.15989923297827668
F0.763380174499941
F0.15247593041683727
F0.12408518722920148
F0.1363395981825083
F0.005775102975677737
F0.024007161604568505
tp115
a(F0.4226724728402307
F0.08756947675448234
F0.7453265456672065
F0.7189634561117162
F0.5135575989660338
F0.5181191344533456
F0.5637818830388962
F0.5554625344189217
F0.7222880569090021
F0.951058835747921
F0.18914194138080065
F0.33835576381275034
F0.2740302153748584
F0.25688361216707456
F0.6009050599326831
F0.31298732572001287
F0.24702263998583862
F0.7573524681744548
F0.6636621759432274
F0.6128134221895033
F0.4362510343694571
F0.7337390241103945
F0.016071197144727822
F0.5451368308777091
F0.9424266738113984
F0.5319856117619841
F0.9771959041597686
F0.27314080451224443
F0.08197294816449696
F0.08029913045803794
F0.5644039340761884
F0.939833217546356
F0.9154145783005158
F0.7088709485232083
F0.3855689557713312
F0.012461128879733718
F0.45322514558904536
F0.9571670767250857
F0.44004883838823017
F0.18325874353619054
tp116
a(F0.09819165738895985
F0.4285056338224831
F0.18995460239743056
F0.5719397070922425
F0.8060575743539246
F0.44783200820477265
F0.6758869045205235
F0.34089026763084473
F0.5295687464638041
F0.5323016417767094
F0.6913668062376502
F0.10444484555703326
F0.15254931791544235
F0.046477445271091766
F0.47177266954658603
F0.2777915221056657
F0.7621606633767285
F0.3106664567581412
F0.05496100216278488
F0.133595374512533
F0.8326951484026152
F0.25614871410230455
F0.9750748059756216
F0.24170086436396154
F0.49014407458005715
F0.541495821147518
F0.6704929903911077
F0.4020407117688096
F0.14295811542860937
F0.03571521382301679
F0.6957014576097108
F0.9797134589843448
F0.2672384479626554
F0.5837224750379788
F0.27302070498276276
F0.16200321741315227
F0.01378143657706754
F0.792283835015873
F0.23928436509075435
F0.4206918270113784
tp117
a(F0.4208017507411781
F0.10954844284007947
F0.30067570828676515
F0.8376106158228606
F0.16395184287225517
F0.12643000663276371
F0.0875111962192443
F0.5603935324329439
F0.203373362821877
F0.1917952667074898
F0.0798104123757678
F0.8189916734253114
F0.44288320419947047
F0.1615932150048397
F0.1982114044468588
F0.909908057067047
F0.09373838340293095
F0.31315938197088744
F0.3668737999489491
F0.000992960633634632
F0.06545421781615801
F0.1209852232631764
F0.19072171678300576
F0.23856257997507457
F0.41487907463784734
F0.18354064689729876
F0.8637854427113166
F0.5465567288085047
F0.5825440211000271
F0.21119203916719975
F0.18090115117072314
F0.3674030509221463
F0.43010051535537475
F0.1474593469321842
F0.05050092430788922
F0.2308408346860351
F0.18260546250440024
F0.8377089512797031
F0.19262097833919178
F0.6510511364211913
tp118
a(F0.459267209433448
F0.7513460994704996
F0.27678362420957514
F0.24469613905292864
F0.6874621990520333
F0.28972544081802876
F0.4216527059857199
F0.5909004484961515
F0.9079373014026864
F0.19740696958007797
F0.36566518705474027
F0.4006533451706632
F0.8144114625349431
F0.935072259615618
F0.2118248071323714
F0.6366472084065866
F0.46681910598163023
F0.6772057826851503
F0.4063951179558144
F0.5643039592921636
F0.7074874925370604
F0.8425343404528323
F0.37338088521496515
F0.029071360025148762
F0.39925804083302596
F0.8532696937606565
F0.9641725932882426
F0.9501857675197679
F0.3832428030121324
F0.31511144073923547
F0.20317996866717225
F0.8492640577639308
F0.48570372139013895
F0.5273930952022393
F0.6101012804662537
F0.7601313856876433
F0.492248455659707
F0.23951869762284905
F0.4321550228915174
F0.38496103951525384
tp119
a(F0.8076201022815418
F0.3741036099973767
F0.33408622926875553
F0.23039710752409936
F0.1928259103566501
F0.5713606210596516
F0.03723017477343471
F0.7490436868057231
F0.382534882958833
F0.8917956460859399
F0.6502457491032773
F0.2853154670440309
F0.352915068608752
F0.5588560228933406
F0.35923004463915065
F0.721908078712642
F0.466143401179712
F0.188141709103394
F0.34189543393739386
F0.882398613511651
F0.43291756213465715
F0.09986851435463806
F0.934434722221808
F0.8502276444278274
F0.6491962793398994
F0.9283155049323457
F0.12268678301068636
F0.28919292535470553
F0.9060292869656855
F0.7269108454052617
F0.356819743844211
F0.960511368196983
F0.009407915258326516
F0.8674538897120585
F0.5342838414075416
F0.33585618006412
F0.9533005643194993
F0.8098975334479542
F0.5457716756536488
F0.7584629715522396
tp120
a(F0.845122422413935
F0.5413490248779094
F0.4763987219281356
F0.48370824626146314
F0.07639345760895055
F0.4225655441899743
F0.7938052310721265
F0.8251021055109125
F0.7517387558941152
F0.23617880998294427
F0.9091919459540769
F0.3764473885473061
F0.24226224791512518
F0.44045605464108595
F0.24040579860270883
F0.5470604028086631
F0.4014846157623084
F0.5282299628976809
F0.2468921068875064
F0.9435807846860722
F0.6098098525462956
F0.6497001339393309
F0.3256110580361953
F0.3667010742563199
F0.04892676305810251
F0.026075802632245848
F0.799212338656352
F0.9000271516067145
F0.8408988289680551
F0.36441642785834194
F0.45984171029880583
F0.10138683602710263
F0.2606762555331089
F0.00861317286350638
F0.7002002410452633
F0.4988854810255128
F0.38032408318563216
F0.5172640454275
F0.5744786006209152
F0.13041466344771224
tp121
a(F0.743971516816337
F0.7327616777094209
F0.15717025696763753
F0.7466435579518389
F0.8359263752543613
F0.05050740521258623
F0.2720317583892782
F0.6743325814677934
F0.8664259363050983
F0.6986582252131398
F0.7765757605663853
F0.259908637429653
F0.9580143562488539
F0.041398615030406205
F0.23400792760494948
F0.6406097186818471
F0.8819021872340785
F0.25265915768184033
F0.17759065387074002
F0.9253703543820744
F0.03791198522379824
F0.9903370861315467
F0.8726729558522711
F0.3931043339312311
F0.7572675531326375
F0.5253709904407055
F0.2279462492379868
F0.9576686976805809
F0.23991626690711976
F0.06440823860513256
F0.382336420896246
F0.8395570589687826
F0.20300110348986755
F0.934016406923544
F0.7949991378084494
F0.5807481781480983
F0.2498613861048573
F0.263831697703349
F0.4134875511172381
F0.8903788118233611
tp122
a(F0.7072633177725524
F0.5163038884889746
F0.9371649843783638
F0.9469098877820892
F0.19479487477945245
F0.8484106762401036
F0.8697257253503802
F0.8162041940692204
F0.06495193128996535
F0.01867895997237734
F0.06980213139108371
F0.2906797199980532
F0.5735893773187376
F0.6397936606122306
F0.21453906234558306
F0.16222296789895085
F0.4320724256538403
F0.30416153518758793
F0.8548733157570327
F0.25162607828085426
F0.8495265737842996
F0.9698329769600883
F0.7893195262017461
F0.17207255408839528
F0.6220974242618219
F0.6556115232529098
F0.720386460174087
F0.04056247440944116
F0.6987682324795225
F0.525889326463467
F0.3180995223433637
F0.14258479788408018
F0.18285190115870142
F0.7142781476449936
F0.4393921735003937
F0.8677659490269051
F0.29333357780861513
F0.8086634009706427
F0.4884931902062022
F0.8954769762488383
tp123
a(F0.6175247670903093
F0.5890723291346158
F0.3745407575230483
F0.9935045983651328
F0.7631316023371225
F0.6693887196239096
F0.05432758494493206
F0.6092542712040826
F0.806460146820262
F0.8173249989238772
F0.8109455540316591
F0.6211523982908046
F0.3870526668832974
F0.12347202719941441
F0.13731461846334336
F0.9564049815311136
F0.2944411893723997
F0.5338554246233039
F0.22476510384480497
F0.5057493230483969
F0.6402049737919591
F0.8497528579667332
F0.512999996901654
F0.11905405573923622
F0.46528552523796707
F0.08250704720248636
F0.12002306063942736
F0.3748056426221138
F0.3804794604170285
F0.9029405023531081
F0.05371236838284699
F0.5171346009241727
F0.5660963392583258
F0.673186258552085
F0.4233185639161179
F0.7971428651709299
F0.21383587885058652
F0.7029579017642712
F0.6697604754637724
F0.588024458427163
tp124
a(F0.7108604624946332
F0.027822430123422004
F0.9579700604443852
F0.11956384951094656
F0.007440416492486945
F0.5151749959821942
F0.7123150772266351
F0.10859600180810114
F0.6279338994911372
F0.5288568261937251
F0.7640525671690571
F0.12251271225126381
F0.7188868455144812
F0.3333244951504545
F0.5002204159287095
F0.6469788370134437
F0.2864559044319338
F0.7483243791329421
F0.13855184124789077
F0.38343147172421466
F0.9496355058235543
F0.8402358296860267
F0.5297822762751806
F0.5229951773577223
F0.06509287366195315
F0.6193791833517114
F0.29774266473315114
F0.03498803848380416
F0.43685857572982156
F0.35706737859360005
F0.3814946837220633
F0.3795453771416113
F0.1737847188824191
F0.000677853561989572
F0.3554495561462393
F0.30288951405581066
F0.0616789996891659
F0.8053445636580457
F0.759427865073341
F0.47197204763326905
tp125
a(F0.011436799864957714
F0.18872900676795423
F0.0203293869921215
F0.8029106430701459
F0.5075275420943784
F0.26257180154917725
F0.3701288937226057
F0.05642630892401601
F0.5400298803410831
F0.5443057621653294
F0.43664573873769075
F0.5108952258736463
F0.27402937078469913
F0.5539827742362866
F0.45260737961876363
F0.15066805753179935
F0.88792598440582
F0.197521933456845
F0.758194313181351
F0.9691211453647054
F0.711192494804632
F0.04271863325434455
F0.11340822339080903
F0.07865911684913673
F0.6177363241788304
F0.28275382903974655
F0.9301200060782852
F0.5678826123213084
F0.020550075765147335
F0.029878608894780112
F0.9346327534206589
F0.9644895282439853
F0.030647471915334124
F0.3664780442173753
F0.7306754701019523
F0.9080484042867826
F0.6750340405176856
F0.08045618807148891
F0.53622695811013
F0.19744740961906715
tp126
a(F0.059585524366976506
F0.944782956050174
F0.45590450022661444
F0.5414223341520147
F0.4316403154850348
F0.2797251972746376
F0.17096722507157314
F0.20697790698790586
F0.9237668828268938
F0.4570369760128975
F0.8488781954010557
F0.671999576401755
F0.19927646434088864
F0.0663777010823926
F0.6118956839715612
F0.022189747037666185
F0.6741692282937637
F0.36121064470392605
F0.3849605749921642
F0.925322749387545
F0.6061362346842518
F0.7832920483579608
F0.9528189588713836
F0.06779590826427251
F0.1418874334214063
F0.9515705953552291
F0.9963363931461515
F0.884238114195605
F0.5406580045006891
F0.3994205250017895
F0.7841738307930751
F0.7891319116710485
F0.5385860556113239
F0.8409499035858032
F0.17868237196193426
F0.49599656830727745
F0.7546642517110345
F0.855005028073255
F0.6369298973152112
F0.4371469309880188
tp127
a(F0.5794559571040601
F0.41078369439955054
F0.07920487318170355
F0.047569544172585077
F0.08992765886735143
F0.2350125912861898
F0.7252876171369457
F0.7603325792183271
F0.9760651665970295
F0.8219090484485019
F0.24377577970704922
F0.5088176482686896
F0.7618291793093148
F0.6621634889643291
F0.8503548640656812
F0.9932734063512239
F0.502007301030206
F0.64988291351556
F0.5580188751879491
F0.4644886789844075
F0.8661846431769358
F0.742823967719396
F0.23068260131902452
F0.14326950388078863
F0.014034224412444285
F0.7173838596931851
F0.39343806784687185
F0.9519613811318693
F0.4295746832701599
F0.9840020547647969
F0.9931093217850501
F0.4859919468075198
F0.49481479280074947
F0.9395781045769301
F0.652265903124241
F0.7605780143681187
F0.10266425780815547
F0.3754605343987252
F0.26387535519304417
F0.489444318634501
tp128
a(F0.06637018204453837
F0.7671143781461023
F0.29843589870419907
F0.8248273728473203
F0.7891723358060786
F0.6055561500569642
F0.9856840226386199
F0.8357199692318141
F0.7497849557224162
F0.3093543435544379
F0.8959415102417566
F0.5464742286270573
F0.49785859464904614
F0.35492190118477385
F0.44498197850956955
F0.4052879622213419
F0.7220953499832861
F0.0859988743873259
F0.332540001216459
F0.45013397053215176
F0.9408525243312372
F0.02842278404169607
F0.22992390065011137
F0.24939199700380088
F0.7072263467095148
F0.7671047047183278
F0.07154865961192769
F0.9109825369005181
F0.13899362839124996
F0.4439023448628975
F0.6280479779348126
F0.8710249999798375
F0.3636112745349458
F0.3479906465905761
F0.8237579057678308
F0.19366774791006303
F0.22710687096716775
F0.6961746425373755
F0.966997297365183
F0.036527464318193315
tp129
a(F0.622096934553288
F0.8873035163764447
F0.25653864003541216
F0.6840676821550395
F0.06266330309448065
F0.7629104890785898
F0.03717788597711291
F0.12962217613532756
F0.2968858484457503
F0.7660450982441604
F0.8818229117199217
F0.6636423170436614
F0.12800125289418152
F0.48322690852821226
F0.07804317695199958
F0.001671788670887242
F0.6191450768830941
F0.07372617400766135
F0.7897294825039882
F0.11509771117471079
F0.2967353008939362
F0.4041268583008518
F0.258078837437383
F0.9120987845806922
F0.015426664826225567
F0.918827683801951
F0.6419750654847576
F0.09600298168412114
F0.2860423396742031
F0.889792552002077
F0.7775407167799399
F0.37612426164739765
F0.8414025418020178
F0.4657612616613135
F0.030274337648879435
F0.6082868778230731
F0.15478830110931063
F0.584060498501419
F0.46329450587732846
F0.3292519779613158
tp130
a(F0.9531070325774027
F0.9717105021962239
F0.31534172160071305
F0.986424384835705
F0.3000369516293556
F0.7997997066854117
F0.7598268006678329
F0.951060844737401
F0.17900715719383353
F0.31288140896313243
F0.8855985055734145
F0.4379974991984382
F0.43608646988122024
F0.13988835587604043
F0.21329962196229502
F0.691908998778504
F0.028849049970013807
F0.718769817510043
F0.9007175042420645
F0.6256169807282426
F0.5490463855081917
F0.17965812433838058
F0.21650586319972254
F0.7488508510013606
F0.5961034390939818
F0.0769875210507982
F0.40557492481232926
F0.5719405297629064
F0.20125188946851058
F0.680528592398805
F0.7388444240145917
F0.7489232203472963
F0.9416475366309187
F0.6270586606819143
F0.5512691110197667
F0.6693121687265645
F0.3615968334690993
F0.0677634061183493
F0.7986396298057096
F0.8796767096415701
tp131
a(F0.8172634556363654
F0.8157544974566006
F0.6220357389087732
F0.48102739503053527
F0.37750104794257056
F0.32849620949463176
F0.6893455965662624
F0.2667453496132737
F0.926373537113653
F0.5611711741983745
F0.14724472835875313
F0.5674790990164222
F0.08494715411346898
F0.9140849236760653
F0.7813512107235914
F0.5995679453326699
F0.9384159087391852
F0.07033047162561512
F0.34634299047302564
F0.8050532951691519
F0.7907846956807333
F0.9321248166837449
F0.4974937295067864
F0.7989029779382344
F0.8587560908741443
F0.4661446629837188
F0.14114520354366844
F0.5968828939147668
F0.25879918643936906
F0.24493567803815797
F0.9164887018712322
F0.8016380455670741
F0.5224345096882802
F0.46582799368423
F0.8362439623213432
F0.1664748114794985
F0.8542285310758468
F0.3245940858633769
F0.5760954055393461
F0.7520813258470932
tp132
a(F0.7563194327667511
F0.7385249424695662
F0.32930705967531604
F0.8853342318086177
F0.45325138710369994
F0.718637622251704
F0.2980430323547988
F0.4767165302809483
F0.4244915177435735
F0.8857172603655659
F0.30710139427827365
F0.49717564820234683
F0.6713860781030612
F0.8056476950879364
F0.8940432777327448
F0.8549097259718318
F0.4366017637387094
F0.31227558009557466
F0.7279600893511019
F0.1439497231144501
F0.8575414681692204
F0.5509060734682815
F0.3869580107759103
F0.7862132317839156
F0.672994443582421
F0.47286325637597126
F0.8807886136131755
F0.3431099752457931
F0.3542521259710065
F0.8773450645697065
F0.21088434871637995
F0.10569924389373397
F0.8447892481698982
F0.10981574277138917
F0.6915453194941406
F0.7794649988760454
F0.7540276303021646
F0.30077806592778045
F0.905350298219015
F0.6490430969615518
tp133
a(F0.6426856746033403
F0.2841800948315536
F0.9087705479533861
F0.4603330619804986
F0.3577919516939764
F0.9212492517300659
F0.30683727581238185
F0.8143316380492422
F0.38908890184340994
F0.6226350958411981
F0.4597303339452481
F0.3235500364365249
F0.6799753033896224
F0.2704063054179964
F0.3228307124371751
F0.2691910143193438
F0.518396389774017
F0.5271933783210873
F0.3350515656787456
F0.07125070586738602
F0.8822791120610713
F0.33521339108222115
F0.3728397797764521
F0.04049573643129645
F0.15830962546317318
F0.1704326777677856
F0.586547848292995
F0.8526670513030823
F0.25293668589376594
F0.395572861102807
F0.4295943174545047
F0.46636125416263274
F0.5221862453290903
F0.9392352671000829
F0.6972677055726675
F0.3367631264685377
F0.526140093378972
F0.45367362187884164
F0.8763243573603523
F0.39087798408329855
tp134
a(F0.9003867787744161
F0.15083603792887512
F0.19863509645460886
F0.38415291790942707
F0.43305779581979376
F0.383012551155302
F0.21254647548046368
F0.7725943074956493
F0.13231761978808443
F0.26888775863955505
F0.03903202253164528
F0.9608836447066095
F0.11210739858577978
F0.0134234732562174
F0.7936902288174911
F0.1864687662606338
F0.09555427575816144
F0.8654257117537373
F0.6569245859929895
F0.8938145791721058
F0.9402607517538049
F0.09952999857393707
F0.4938008515752571
F0.5833728830253662
F0.8714664468402763
F0.5928250814583507
F0.13714108017293214
F0.41722735058889604
F0.5340762767230856
F0.32022677091070706
F0.2055432054486449
F0.9167467225911173
F0.8822134828762909
F0.24660350640016448
F0.7238171076968845
F0.13733282173355166
F0.5471549849593329
F0.47535756253489314
F0.6643244583815255
F0.268184008635605
tp135
a(F0.8468001342067314
F0.18960133181629513
F0.8353842186253647
F0.4027882600265087
F0.3417499522386782
F0.7564805240664237
F0.4347381797839034
F0.869534904657721
F0.18136211061153462
F0.46492354121555624
F0.9543547518177334
F0.13712292555037597
F0.923572828621035
F0.24778104149141755
F0.5999978137660051
F0.22697667118391784
F0.04888855241484469
F0.10208232220473112
F0.18766449426497755
F0.9743674158184
F0.5468176280069377
F0.48112082960149516
F0.9150574084068205
F0.1808352537618687
F0.5951932897254629
F0.10917539267405729
F0.23612967785187167
F0.2741367775082122
F0.5191427172564275
F0.6375217535276403
F0.10118491914216143
F0.7911773009370204
F0.8604025681297296
F0.8793737672536293
F0.5809672824535766
F0.4162842110901972
F0.38399975300462574
F0.8007490757373349
F0.2560602535803116
F0.6921159083516485
tp136
a(F0.06875493336822425
F0.4751501734228539
F0.800425726663476
F0.3509717741994539
F0.9174383758341964
F0.524763790896733
F0.024495091945586633
F0.20578082309048296
F0.9253207153063889
F0.3957163128208252
F0.9102319803242334
F0.2393172756407016
F0.04607412728082805
F0.2053139203290849
F0.18485223968905018
F0.16847952682174439
F0.12624166773896284
F0.6497045018124276
F0.33217982731327034
F0.6107118352778221
F0.6237361757927623
F0.6947551303967188
F0.33852483560731483
F0.3227136987294221
F0.45440093534052506
F0.5825510768971984
F0.7330674749472946
F0.00797902347683277
F0.06476505469575711
F0.9841340805929872
F0.8612490032638748
F0.7888156295649138
F0.390698085104381
F0.580574312668999
F0.3987458433194506
F0.041379230595812166
F0.6389404817690838
F0.3469904579979425
F0.046591069167858934
F0.2599994610529647
tp137
a(F0.1367303427345118
F0.6243652588284844
F0.40279352738949536
F0.9307075196223171
F0.1759433623207185
F0.08304843455992617
F0.19411059969242306
F0.8970465318153488
F0.9355107285589451
F0.5248426153380022
F0.1078884492733907
F0.5527804619045872
F0.015354719026743235
F0.11029155414533853
F0.6453871302388351
F0.9219841747649471
F0.9079983301580027
F0.1364888331557239
F0.15587734618544336
F0.32326272594700844
F0.4714371284211285
F0.8199417968150353
F0.4144861157265879
F0.7408565702527213
F0.11305328771117518
F0.9320313252640899
F0.11238668793481077
F0.31933379818294627
F0.7133485631632775
F0.8647485926779208
F0.08192834538689064
F0.6906985202440451
F0.04149991146122056
F0.7291347628197188
F0.028292071943953667
F0.6700285124962008
F0.8475913291176771
F0.9119385029598897
F0.3731684539141634
F0.21557516637606877
tp138
a(F0.6018989977510556
F0.33737203324136233
F0.22413117141366667
F0.7390924678129115
F0.15691607755859927
F0.6094570312409524
F0.2900729267361557
F0.6431730065988387
F0.3797236337084714
F0.9811696307688968
F0.12418179904241133
F0.1907653689698402
F0.677422764365263
F0.8607636278122042
F0.5642379448113538
F0.0831169716627902
F0.5958345663268013
F0.09859252875044078
F0.8474585699872511
F0.7459442262100987
F0.9341474279183809
F0.5396409177896032
F0.15344700216715934
F0.6113897131510397
F0.9230701472643831
F0.34096928893734435
F0.5329017308638178
F0.47934700344412917
F0.8027313368636165
F0.8097135366841678
F0.1031846093217248
F0.5716891013813613
F0.15078626275404228
F0.30072594326566626
F0.23640936559197778
F0.6529364497458512
F0.7063080533425227
F0.37285988028149875
F0.25546725037724516
F0.3593273710849918
tp139
a(F0.7033229599541576
F0.22866744643494252
F0.35313354246969464
F0.39823259605115
F0.9950725660778866
F0.019852687107111966
F0.3244980818332822
F0.13780368762958917
F0.662008044328307
F0.7966248234045299
F0.58054900938295
F0.1247615502514613
F0.35284256213788445
F0.383342076429966
F0.36238820851205744
F0.6534194541307304
F0.12403158478925003
F0.47505990747700166
F0.3940692276477137
F0.8261947156018828
F0.5461295330373274
F0.7071808815397577
F0.06880834980669248
F0.10332400547559628
F0.7803915195657894
F0.790442014967901
F0.9902749986216286
F0.7885655610129717
F0.221149203246226
F0.6275131645070348
F0.7856200779269099
F0.2447509132237169
F0.015506759888810895
F0.31076687783957957
F0.3399911322932141
F0.68207434245628
F0.04727301720831978
F0.4827839064534176
F0.09117284076308829
F0.2582395662644432
tp140
a(F0.425953792710939
F0.3061621386503446
F0.6624204474150598
F0.31858801346404464
F0.1311262274333741
F0.13065901473270514
F0.17088950367998323
F0.9962643275462607
F0.9304739324030933
F0.4724443636485751
F0.007619131488656894
F0.7308999867054811
F0.11624467471527844
F0.7634230525594082
F0.3365558069245672
F0.48486100362682094
F0.3499661922808952
F0.8541385079265977
F0.1823654324126479
F0.8580074313792512
F0.6725913445637427
F0.841832233269329
F0.31436456835844084
F0.025384522619122496
F0.9410540092516454
F0.21343027510115908
F0.011239543971552468
F0.3449083937254689
F0.6412548273901512
F0.40836137683327145
F0.5612330931042517
F0.7672431618003572
F0.7438482023614166
F0.1420652440202248
F0.39349571607774714
F0.09382537929767287
F0.7898361043181252
F0.3986958391267911
F0.7441412212846592
F0.6581102058983884
tp141
a(F0.7823618389351612
F0.6395077603557972
F0.36098991864615915
F0.6057917328655537
F0.4176519229141592
F0.2375073010324864
F0.8285488085434858
F0.007446627570382169
F0.6662156790578634
F0.03318194245366857
F0.44614790177314423
F0.6513975959805418
F0.8830756239519902
F0.2196368072915803
F0.7219072981895575
F0.1383267409384783
F0.7649399874972006
F0.7977486352745852
F0.04510741088187031
F0.11430549743495955
F0.36531816267956496
F0.45028853363433263
F0.9970013151943868
F0.9933307381316744
F0.6614639518901031
F0.24404890838081184
F0.27411706108856293
F0.038108151745742225
F0.2485407940833031
F0.24898954275151053
F0.027128379606073616
F0.400380958831716
F0.3747328061093499
F0.5775518647165927
F0.6536751299155148
F0.4474573264374708
F0.2414603048830406
F0.37490703024189254
F0.14452479591276068
F0.39145586984727876
tp142
a(F0.7429600070046046
F0.17120311512428044
F0.7465273413405306
F0.06160972529890929
F0.604934241564685
F0.34685671080219105
F0.38723636424289665
F0.08851175211393059
F0.7967018835996555
F0.4558375271596685
F0.0032143455957932554
F0.9659952839169519
F0.605217601499652
F0.6990320602627889
F0.0883764109963463
F0.29861766858112015
F0.2542836849851582
F0.21880078433182448
F0.8241838054554768
F0.27733014880513085
F0.6237405018043
F0.5755889955216404
F0.03591114428387121
F0.08002080606580175
F0.13651146711777473
F0.4141483325807618
F0.30820731092786147
F0.9751189548664816
F0.6885124268810074
F0.34067194545004775
F0.9946635107315158
F0.027430329635459993
F0.3964714027651943
F0.023570567926922914
F0.9585712207788882
F0.7397584182693906
F0.8354720015626664
F0.13927106859524352
F0.9882745512431746
F0.1425580130504056
tp143
a(F0.1575731711820575
F0.09368022311587731
F0.4247944848354489
F0.17375587147082494
F0.1991515540300811
F0.16010949480303194
F0.4032725531360981
F0.5110620969295012
F0.39584792372483346
F0.8020492799922705
F0.24019779301938549
F0.013430673376202629
F0.957549251496859
F0.691974527901025
F0.8998257089176116
F0.22950642809561095
F0.18339544519691564
F0.8766332320143216
F0.5788916856245707
F0.9688956505099585
F0.27193256740168836
F0.5671551963955231
F0.5046290320081438
F0.5233127521494679
F0.04410716316435981
F0.7542750968547083
F0.6008905550155104
F0.5286907928296322
F0.6337393698155085
F0.9372059472099885
F0.9864763766656363
F0.6199490655323943
F0.8195780897707376
F0.7951322770433572
F0.4756173659846532
F0.4807753202128585
F0.8966527816825228
F0.17029138219761897
F0.46628364476485273
F0.2542702773269718
tp144
a(F0.46659397786187284
F0.9015961857262285
F0.23485961405626354
F0.4594528612037658
F0.21705803820222047
F0.9170102437582133
F0.796514032797765
F0.46671129240690745
F0.23034768894066016
F0.46621589269803365
F0.059045406986858895
F0.17954928657061775
F0.7913059412469741
F0.5210474678558488
F0.005074883939038544
F0.5101651958428342
F0.5305612538433013
F0.19972578244728045
F0.5566607290256051
F0.1683501385554853
F0.571370993786913
F0.14074533384360355
F0.12617646037513663
F0.9057190011895249
F0.7974687379645401
F0.45039248643014584
F0.8766196868707846
F0.7634103782307092
F0.44336901079917457
F0.25922792936093864
F0.3035981767894024
F0.3993793393433259
F0.8521855014894401
F0.8160881631769552
F0.3893113125143709
F0.3852048462313885
F0.6676082695842511
F0.8960362116049087
F0.2109804864885414
F0.11203017524059145
tp145
a(F0.12269828874393063
F0.3083455307132691
F0.33203667626802924
F0.44703033206084075
F0.6950652812719571
F0.6661771156776136
F0.17919461819116722
F0.010201628702850574
F0.7672525492785346
F0.08616566435658535
F0.2663947792498691
F0.9592004701615756
F0.6379305731906467
F0.7769692846007927
F0.1513577832541797
F0.49921093603397537
F0.22640907016571488
F0.5487210846697649
F0.8170160709867155
F0.841165849885203
F0.6355474379692216
F0.07661119996817678
F0.6252570680857548
F0.7168450276035536
F0.7916513566419742
F0.18085838198055926
F0.8314621352508972
F0.11573406066678638
F0.21661272292050227
F0.1665056836050316
F0.635294141080019
F0.11872991434213709
F0.2665108674901401
F0.9658236615959361
F0.9968385185052835
F0.36104774547976326
F0.9248148232513073
F0.40909874420185555
F0.09989610602904475
F0.6357085873420104
tp146
a(F0.329602538913752
F0.40293078271613625
F0.1541182445999998
F0.8077129262274405
F0.17637244687099762
F0.545152595679889
F0.9690334018518924
F0.25653661042924036
F0.9036662618328904
F0.9587704113822549
F0.48789502193083645
F0.9307889301570296
F0.8251360118565442
F0.6665196078132807
F0.6936683671074115
F0.9967649998855178
F0.2986175332359393
F0.18953183427932352
F0.302006267132774
F0.6328300704069378
F0.06276755728846661
F0.31341721529437183
F0.4875864071267082
F0.08937981129581252
F0.8646913289234299
F0.3611510772063249
F0.1792190746094222
F0.7096546216539373
F0.5619591808297595
F0.22843553332370747
F0.9987903232621729
F0.9748996334285353
F0.7745224122215408
F0.224009969476215
F0.08218087583714295
F0.6817985931196914
F0.926551115505132
F0.09766955833962199
F0.21248127624739377
F0.3152132173519058
tp147
a(F0.5619392918370539
F0.5082818618070772
F0.3933292743628376
F0.39222026104178376
F0.4892392726171537
F0.9385377070887563
F0.9920692114461241
F0.5190571035128028
F0.5206234942958144
F0.810593437440754
F0.8749463700111734
F0.3766250026212187
F0.7612045668895177
F0.01772988556181565
F0.49543593759214266
F0.39636858150182175
F0.0320244157430678
F0.49583259503585997
F0.8719867854990452
F0.7491971637853012
F0.5083361038345744
F0.22251151851530337
F0.6906737664242601
F0.5265988533590956
F0.5429461595223158
F0.11270301005264804
F0.08479966774697434
F0.6943340800338748
F0.08139226322602078
F0.8812547981184509
F0.25812853587800366
F0.2997523584984818
F0.23955401109711483
F0.1452221120376629
F0.3047442763500202
F0.7853760012310134
F0.5792761487865513
F0.35359024669148864
F0.7072374544871379
F0.07237203088324184
tp148
a(F0.40954880924411396
F0.7422125174080845
F0.4589707191254083
F0.9053875714255575
F0.30073889006389753
F0.009424797951250619
F0.7840325912776721
F0.9991959757027583
F0.20568091469362426
F0.9206233323853367
F0.19905417354313826
F0.3485088551935598
F0.8727580135030067
F0.04294548133800902
F0.6205319156901516
F0.24771717199211107
F0.04637559740741126
F0.3444085305745844
F0.3308200101014156
F0.551345223995189
F0.36781690242277854
F0.45867066899726816
F0.8764746635395109
F0.030735700132652477
F0.9614736759399579
F0.6150985827697246
F0.9580298911975406
F0.0855336396875277
F0.061228102165317155
F0.3026453173452498
F0.9676333999939158
F0.7096621730697596
F0.206503395684009
F0.8751491121712681
F0.5981879942427655
F0.6328330994691592
F0.3653896633046396
F0.43210924490341185
F0.74468079144008
F0.8192139070827656
tp149
a(F0.9176164917105363
F0.7959656262279879
F0.3607033280178754
F0.514156220089274
F0.5907703057292648
F0.029266387016371187
F0.212350711922765
F0.30249805956838416
F0.20077300995162783
F0.8369144480913882
F0.4318469537618569
F0.2634725147885518
F0.08817411528834374
F0.6605308600252391
F0.7626778363017871
F0.41383326134942466
F0.36008473713801425
F0.5828360115712762
F0.7695746853379313
F0.1338726422989075
F0.9684557154465065
F0.4056767178254522
F0.545721916820727
F0.7328486104900247
F0.09032493835528099
F0.6938962310988455
F0.16706174419574515
F0.6104345553548038
F0.05313206906128887
F0.9610227345975396
F0.1913461805867036
F0.9690363640311198
F0.5187963709050283
F0.4236014842171705
F0.2988538092510026
F0.5348790885618405
F0.594529027471832
F0.5414412489079098
F0.16407170521501135
F0.5428410087488479
tp150
a(F0.9806967982794428
F0.6996462145192809
F0.11157199490959069
F0.2114813826890184
F0.7140192963415859
F0.6958431312803254
F0.1661567384147531
F0.8967890285307151
F0.6090949264026215
F0.25356605233099694
F0.35294640431766233
F0.15536890207060006
F0.9119229979127174
F0.6406310408178398
F0.7238010903187854
F0.8438031347298907
F0.12237911176492566
F0.10123674047707176
F0.36349387267891065
F0.49180311568298507
F0.750161274641361
F0.8800140750936958
F0.868612198334978
F0.5409268833850923
F0.9793899412460673
F0.822542569285281
F0.3263024282238288
F0.9821030739450923
F0.5996996210333178
F0.1628467566368279
F0.6479318794739453
F0.740505116970985
F0.2949694745042263
F0.6446603727741768
F0.4057765065819452
F0.8759012743201902
F0.2589713908634452
F0.029529089076478776
F0.36932998815945994
F0.490100325004436
tp151
a(F0.9922002786750418
F0.03470096345167595
F0.8652808442892082
F0.2441903574846055
F0.752869933900777
F0.5374798862773202
F0.1826592112927915
F0.7322390656726203
F0.39035582224879006
F0.06721645302689117
F0.29101787790053224
F0.758542932576934
F0.6140691517383392
F0.3951375652910947
F0.35936197143587134
F0.9525775915914051
F0.8705967993785698
F0.37391531755056107
F0.7589973150425333
F0.8262013450486233
F0.9454770923802824
F0.43008884953526916
F0.7631923359956019
F0.9539984719124582
F0.9721074283933012
F0.09136793658733178
F0.9885204068044156
F0.5908594087771615
F0.7822779273756606
F0.5535467750425929
F0.46161094562513305
F0.7573889867857194
F0.9639331915561649
F0.888314228094065
F0.38167090508284707
F0.27328210836332245
F0.11795697784253845
F0.20489592227817732
F0.742854821392882
F0.6413465545842167
tp152
a(F0.9781418847040291
F0.4739508199575735
F0.6467351124403746
F0.5705311304143162
F0.5426827968371887
F0.29624711221861233
F0.6107358944039828
F0.9661577151519004
F0.6480289143790064
F0.1696375154020041
F0.981897794892321
F0.16599466506172622
F0.5944302904610155
F0.6858992601830499
F0.4950126902458052
F0.9616756205051267
F0.08605405918753462
F0.7896108442077253
F0.16641507697236335
F0.9434000256306592
F0.9782277318509555
F0.1393334278238011
F0.7090021449994484
F0.05660977920097421
F0.9703210208595034
F0.08409538734258348
F0.9815550842518709
F0.40869981557610735
F0.9968734029406426
F0.7881271490834996
F0.5542614801517189
F0.9820633432129982
F0.2968611216543997
F0.7457246501894722
F0.49781469170855364
F0.44169757502022633
F0.27779695963113804
F0.0031404425137766534
F0.034145435605272945
F0.07834908297719612
tp153
a(F0.7539332442285728
F0.8041642101117606
F0.021723873443237562
F0.24510290674455448
F0.6328601337841997
F0.20879174327645844
F0.562189630408667
F0.7632277376690104
F0.474451967315501
F0.4052009688641903
F0.13740897013752906
F0.9561979877316348
F0.337683516949304
F0.8467612914274585
F0.19376234144120974
F0.8194955921329745
F0.02849655632374548
F0.9571941429983328
F0.7267957391614798
F0.659183964584224
F0.3125067663291422
F0.5722453153793726
F0.5343336147341462
F0.7163089535705278
F0.8588594925948584
F0.297007496066478
F0.14902270197779877
F0.9093234153974072
F0.196454475185747
F0.7815262176820444
F0.8616920565432318
F0.13470546390637617
F0.8751359681444051
F0.5150355306114707
F0.5251839294472028
F0.6578017368895794
F0.060495145410434104
F0.1366624907163152
F0.06142817448776372
F0.26664397499545256
tp154
a(F0.5785182136971345
F0.527210849525916
F0.23768880879342236
F0.5249825022600857
F0.06857769350002674
F0.12193062309457192
F0.40751640173639603
F0.38325372683913483
F0.5717853012946673
F0.033210179090028324
F0.1367773152518763
F0.825013506946566
F0.37880524927786596
F0.9552709485055083
F0.5501439024644201
F0.34817787329042804
F0.4251746083309216
F0.07272165362085137
F0.9764950484001753
F0.9407097645662222
F0.5385327909093555
F0.19789687781900223
F0.5248607961214165
F0.44148825212448684
F0.06281728073579285
F0.7338995471429837
F0.05562056853097752
F0.7724778225355255
F0.18137995180901045
F0.9758323831069518
F0.009688924971818724
F0.7320647465165449
F0.11293225231901838
F0.6596140616955634
F0.8130384297972236
F0.549508008972163
F0.7430247979003239
F0.37003801768078404
F0.736738333077374
F0.4087433541866966
tp155
a(F0.03664891760066613
F0.1814947514574231
F0.8191753172885821
F0.11813385565936818
F0.09149709801890493
F0.3390668104467599
F0.4437547416748714
F0.8620060195850191
F0.3839805602992383
F0.01843860218457749
F0.6417008375527637
F0.7218531387557445
F0.9741933255784926
F0.44502588868059845
F0.2264334465133988
F0.8976941021352571
F0.6892229622241155
F0.12697342832157776
F0.983052827610234
F0.012387929982297763
F0.1365730224975723
F0.9960530450558118
F0.5924184550864258
F0.2493140012023778
F0.44853623728212333
F0.7247248667261204
F0.6622268880681148
F0.3306578635772114
F0.8392237047653398
F0.950179998508322
F0.8241350251739169
F0.0021670584812784055
F0.8506978693801994
F0.31759499446827344
F0.5890865052226052
F0.4467902853819541
F0.05045930826014289
F0.43959637352178926
F0.19173079436530038
F0.5987213576820449
tp156
a(F0.586620164360514
F0.29735660798855845
F0.6910768190053646
F0.6035002563954855
F0.7752848864703727
F0.15025607110652506
F0.1695491227868705
F0.06296615446884835
F0.42007094871571926
F0.8309886544679338
F0.3313427950288437
F0.5272735047784026
F0.9586315486427657
F0.39548546308237476
F0.40324668683499976
F0.47018110530717794
F0.2742402570141549
F0.47098747340067204
F0.5162686224424359
F0.5342929318083879
F0.8890831701669905
F0.1616652764632759
F0.632141643740169
F0.9227559337844166
F0.6009182111940585
F0.08347900846031686
F0.6947076043808016
F0.01647613807924264
F0.9920205888116653
F0.47992479212555195
F0.8549625315211913
F0.3558393485870339
F0.6556901573112065
F0.5785214476045656
F0.30606614972658475
F0.7788926271769974
F0.5022817236696839
F0.08930821025516822
F0.2800108666409944
F0.833628001974054
tp157
a(F0.5525918323972417
F0.8718657382753289
F0.9697720355410677
F0.7932062243707022
F0.18146483224508003
F0.508193371556424
F0.9842634497204248
F0.15398838645505952
F0.9754152501681762
F0.34746375056973056
F0.25179971673393475
F0.6958155494521286
F0.1905052726900287
F0.6642238022166976
F0.7976044949928428
F0.7615251495638401
F0.7698937173675972
F0.568792911530277
F0.9866941050401102
F0.4734625728016998
F0.48591376942829645
F0.22904184905260083
F0.14030691953756436
F0.38343247420080095
F0.8154636866489463
F0.659554677006381
F0.9436719450929001
F0.24175605399547695
F0.10988562186755912
F0.3411129575326126
F0.29478611976433633
F0.802425817045124
F0.8411987035185119
F0.5180164518217792
F0.007488927530701073
F0.5753371448538886
F0.4054553124161948
F0.926271917224896
F0.6289773833219219
F0.1804620910492164
tp158
a(F0.4202116301646259
F0.6984856868072993
F0.1335254262508424
F0.5390957668504822
F0.1450396138007316
F0.9305531873580987
F0.930705797001395
F0.9044716732705347
F0.8947498459373459
F0.6096337543586214
F0.021652025103077288
F0.6943949303366495
F0.7668460105142982
F0.4762458885600577
F0.15983687143592162
F0.490480954096152
F0.20320705531036076
F0.9340015240364102
F0.8966005873902839
F0.9532909256331222
F0.705633048349995
F0.6109535708450964
F0.599556603499739
F0.21298570183953847
F0.8153901071975908
F0.07853487595279318
F0.1925722160703044
F0.6294045903494639
F0.8369722019419407
F0.37316325362645686
F0.3513265839711567
F0.23105335242262082
F0.30841335356760813
F0.4856245988426182
F0.3187710616689893
F0.9347365040564871
F0.9826101228873504
F0.3819410159262906
F0.023547089285102518
F0.9063139738107713
tp159
a(F0.43874157694180593
F0.49540232001515605
F0.11854922617529828
F0.7088089141102594
F0.5893893922447202
F0.5792410231103051
F0.8431652276992927
F0.6602723067094084
F0.973738723545676
F0.5422594219394303
F0.06080763093079544
F0.8832088202027578
F0.37062670455770763
F0.5824349028150456
F0.9117778727005997
F0.7146515192652643
F0.1009903179259688
F0.6180445548330789
F0.5738277155094518
F0.845324634787082
F0.5806569962418834
F0.9739324621927765
F0.3273360014666825
F0.8895479729750492
F0.6291050534026793
F0.526614961914653
F0.2857936446389441
F0.9836286290523433
F0.9621441006768072
F0.3823305141704163
F0.284778381940049
F0.747764859731644
F0.1916340010413451
F0.6338626306672563
F0.5864029539326863
F0.3668730462050568
F0.38076427164707305
F0.16295007385905524
F0.3506096645505644
F0.8245063116204749
tp160
a(F0.6174958525231768
F0.542808760368316
F0.7507425178982391
F0.8494951163632876
F0.11171296760286942
F0.9882225140329173
F0.561555942454938
F0.4709016394785144
F0.04370274148331954
F0.9202230542946997
F0.9510115189242547
F0.920989491472849
F0.12283678998021141
F0.6077586848847916
F0.6650726508811267
F0.17276578258889586
F0.9252749793722066
F0.6978499429765713
F0.275652399071901
F0.620113408291416
F0.3762577646671206
F0.5004873882001563
F0.41079384518637674
F0.4847924659107866
F0.19031990358053963
F0.41456177918580794
F0.6642026523406699
F0.2008641378775361
F0.6408353307076633
F0.576330178349603
F0.5827444237581755
F0.5136781287625984
F0.012860580000536248
F0.40119115598521904
F0.8123553943422895
F0.018860759923079562
F0.278491775437013
F0.4435734278535933
F0.090319214630451
F0.43555320213361326
tp161
a(F0.08725427293052446
F0.3582223451743307
F0.2011653462365275
F0.044456893948902954
F0.5581460176206492
F0.4907194985556067
F0.09660338316287975
F0.9742245952054902
F0.4261256504178008
F0.9508194113677777
F0.800405694252151
F0.5981012196107356
F0.3604616313023935
F0.27127639265073156
F0.11168392591327059
F0.5439502583258136
F0.07672680903298734
F0.6805454521851821
F0.052078517196500695
F0.2539118061318456
F0.2597421188381064
F0.24184832777399323
F0.2594399005304734
F0.8405907102683756
F0.2658695076679978
F0.7575215610912193
F0.2838837081132938
F0.9277667737143855
F0.12279702243914226
F0.528606106418829
F0.5126835250490737
F0.40613667496443695
F0.042742942828988384
F0.6095846898241112
F0.23236020941319002
F0.055381643952508885
F0.9723261861790603
F0.9746913321054183
F0.25651795368559316
F0.5361133792211047
tp162
a(F0.6105858371942408
F0.26384235092611064
F0.16808521151646705
F0.5061059470052309
F0.45926334502260346
F0.553548321254401
F0.5439100961308252
F0.5745030719867359
F0.8260767301438375
F0.16745620070559852
F0.06081345388646253
F0.8638010480135039
F0.8430941360253531
F0.568402506109689
F0.43614016141086365
F0.49161151796197633
F0.8715680214952065
F0.08896775385071942
F0.8471860286612972
F0.888958774065712
F0.8791150726696599
F0.4615040046172981
F0.29856517128649485
F0.8502780804711846
F0.5393316778229698
F0.503191744709468
F0.740159147928143
F0.11006171710339452
F0.36925450118143566
F0.6422424195272035
F0.48955083092109974
F0.8589557169413483
F0.738341769183478
F0.7332024385133734
F0.711764053704191
F0.13891718950293863
F0.9285374626566205
F0.046635801481791805
F0.8274266086026161
F0.18930321929808935
tp163
a(F0.5523818305843848
F0.9645443310089252
F0.7795651252937511
F0.2259365886258411
F0.19878001574743276
F0.10407831380637422
F0.539958496099578
F0.41607439061384
F0.4537483715105748
F0.48622155661695377
F0.7352473796069781
F0.1764575521867161
F0.8428403517272304
F0.9081391351889743
F0.15128671686513928
F0.9206187708158443
F0.4989736390451649
F0.8636596346222092
F0.6654160785816297
F0.952402620662629
F0.04340089471339281
F0.8420019740054535
F0.7086644285899126
F0.08172412169580312
F0.7076456911504222
F0.1712710907375926
F0.042396199032649795
F0.4602265127882509
F0.9580224165443081
F0.08658986761673249
F0.7543133988541109
F0.048714914734953596
F0.880030703300024
F0.08945054102051753
F0.2746725427953658
F0.9634220522594474
F0.2508671556824962
F0.2814798141933119
F0.06524372297418612
F0.13202380807467418
tp164
a(F0.8070364544396724
F0.8442153858151795
F0.7191569044646009
F0.9061656036620154
F0.8421991070772635
F0.9721771686197541
F0.3740975861570289
F0.6995863944028144
F0.7172507835812977
F0.8276348773171138
F0.5045883786621966
F0.3217298554632678
F0.6435526883789034
F0.5561923877628802
F0.1551240076703716
F0.713120438573271
F0.5157488424082302
F0.07488929264481914
F0.07412801326806062
F0.683305243407315
F0.4647194405496421
F0.8071831117908894
F0.20650360163413617
F0.2521330395694117
F0.8447155607959944
F0.848867801251685
F0.9904281822002605
F0.8560267698401437
F0.8330316846045261
F0.9381788544821523
F0.30704808006935547
F0.21288856399499112
F0.8760394526109764
F0.8980803866530255
F0.9140879248372069
F0.6293811794535659
F0.9520871523616461
F0.4737812450896808
F0.37297562511251314
F0.3927763958865934
tp165
a(F0.5038925514987211
F0.7134213013133043
F0.8650286820269097
F0.8273303827165879
F0.5129551544145594
F0.3921379014644055
F0.3676054606229108
F0.9339421767431048
F0.2463712249048423
F0.4328774013471276
F0.09661587150690087
F0.34460723774418833
F0.1477079096642835
F0.8546888627079726
F0.8854732078254922
F0.9169382650290943
F0.7072493782882603
F0.915508820258286
F0.11634363552089788
F0.42301874517911564
F0.13897645123068014
F0.22251417528169515
F0.346944371310697
F0.38459296272768473
F0.8187295804882985
F0.9756850201609284
F0.8849095945386172
F0.9486144306803376
F0.8394329346867698
F0.29487080587162484
F0.4344579034402015
F0.004466418441427034
F0.7881504700101895
F0.4835048687542125
F0.6207168415521299
F0.35779549261541954
F0.09910647163801267
F0.7716415505899163
F0.044535882604443966
F0.873404964862667
tp166
a(F0.907812638220702
F0.443697843313259
F0.6846806356585043
F0.1977670401739512
F0.5095708064115869
F0.8184382804775941
F0.25686806099771964
F0.6842068574303021
F0.09924200236936875
F0.761514276756001
F0.2723153945212088
F0.6596276471791094
F0.1432665432704735
F0.7695651900214472
F0.5571603159852047
F0.2474412164729698
F0.9412555827978791
F0.47228056957500064
F0.021852616036139416
F0.022545836983019374
F0.020503004658893542
F0.7343590831695536
F0.9397493066799505
F0.21680286538386673
F0.00562166662561514
F0.6111107343346386
F0.977143580072577
F0.2814878960912214
F0.40370410844213356
F0.10065187378431684
F0.5301917276431757
F0.021475994660351216
F0.3962749103035442
F0.8851419250786046
F0.034181663099034476
F0.039408209590050425
F0.5980742907160482
F0.398187268273115
F0.9604440571948151
F0.7606014203190731
tp167
a(F0.1744705968130137
F0.050001760542500384
F0.06314111603370942
F0.7840097398465615
F0.21213838785798556
F0.39182120714798097
F0.5335329024483321
F0.2848373125876993
F0.060496383204605486
F0.7268452972050036
F0.08227553843981228
F0.47934242982743913
F0.7264465586363381
F0.8115916987635096
F0.9218335253014539
F0.8958131648730767
F0.4164189316182787
F0.18199222654287373
F0.28056518629762806
F0.4648216232504686
F0.3718954421750982
F0.7292514015880084
F0.11228302215727459
F0.15315360912125786
F0.9469972290795725
F0.43691922245638826
F0.11790714029936378
F0.7679862879049989
F0.8513358434140318
F0.3058664525707103
F0.3152268809955977
F0.29364862409707604
F0.17462829287962356
F0.15245315385682756
F0.6646586050817569
F0.3253157964273736
F0.4259905401086729
F0.30676127171483003
F0.8829786215395032
F0.9281369674821549
tp168
a(F0.7898525334476706
F0.07147683204273647
F0.3064998528592894
F0.44689792864931766
F0.8301368735253728
F0.9778925677706308
F0.7293039501375829
F0.43212855194887323
F0.3061261617217763
F0.5796489025792088
F0.08041472529094895
F0.928114303396136
F0.5647472385753829
F0.03999224170817273
F0.4810360008489434
F0.1673266954410606
F0.05844535961361863
F0.3063798826515698
F0.19409198812725004
F0.464206227797645
F0.893933365387703
F0.27939521917464427
F0.9767405308633454
F0.30430523725996794
F0.5876187973945528
F0.2640252353562347
F0.9936879837406352
F0.25163436793670046
F0.7666159971040621
F0.42254458741569567
F0.6794304387157326
F0.147761735270034
F0.755098433483587
F0.05408298644520759
F0.6901134450026676
F0.10788442033552148
F0.6803281446392276
F0.9513510242058528
F0.953482856894216
F0.1881489833675094
tp169
a(F0.7002813530771328
F0.7834501978064368
F0.8610746033351366
F0.5607777329535567
F0.4299020587321548
F0.7961080769052361
F0.7794970997331669
F0.22933376658635474
F0.11130122691842081
F0.09167819427720514
F0.2900717666914375
F0.565704709052815
F0.7538606296990779
F0.14552651387229376
F0.9767176169215718
F0.8697299317177949
F0.7310256974437296
F0.6211681784866593
F0.2571825288402225
F0.7431046642239992
F0.354580210133721
F0.45123238351854045
F0.6387725009887375
F0.1141447067109651
F0.056942222107298934
F0.06913149496426829
F0.08049009587833278
F0.5938174401746604
F0.2520820032487069
F0.7720656590141837
F0.29317115769199975
F0.2329679068900672
F0.771898150162279
F0.5735991845850793
F0.2056432228196735
F0.14252282478389988
F0.2316147500417678
F0.787796576759129
F0.7022955412421101
F0.18760792483454092
tp170
a(F0.5289579868269477
F0.1003010278487505
F0.1327576342530309
F0.6931260319035164
F0.327477809020299
F0.9302053376626457
F0.623823305902087
F0.9068630331220021
F0.035492068987585945
F0.8135857008417463
F0.697858728319211
F0.9392478314121255
F0.9440154327592202
F0.9390228547224859
F0.7848243483014202
F0.9060218328931241
F0.32027889892016614
F0.09424825933954928
F0.0754988842804053
F0.8652171236873631
F0.24186656765650483
F0.8233458767819265
F0.48130113955883724
F0.11162713535137125
F0.3742516108208509
F0.4588836810398427
F0.03564957602432606
F0.7989342260396298
F0.8607763850897634
F0.44738035760553974
F0.26810567994463863
F0.6836832607142413
F0.18125101929063425
F0.9536934869487361
F0.3867130815416965
F0.729351933183963
F0.9767688279008944
F0.9306497261111002
F0.986553458918129
F0.9728921662532581
tp171
a(F0.36029678856488
F0.5071672523340657
F0.6002474038186816
F0.6818284863342642
F0.6642821028929834
F0.2790454201065077
F0.44683017407711356
F0.4607622097303853
F0.5250123296195317
F0.41125043873487344
F0.44785203706003174
F0.6603282968969784
F0.9894843559354924
F0.3091514528365611
F0.7683510294304635
F0.6329945766295124
F0.2908532676255817
F0.8661265304339817
F0.8518560100093124
F0.9310679048306535
F0.8675210548084195
F0.6676313954913258
F0.3742212628526419
F0.6351491379346145
F0.7043709550112087
F0.9820050291008885
F0.4848722940605361
F0.32784707500567833
F0.19234099730608167
F0.14650027994077675
F0.54411290855536
F0.8882781280977651
F0.2678973967214493
F0.3898535366049737
F0.768239631268762
F0.007187947479923018
F0.06180500964382607
F0.4062587361755978
F0.47502895698683834
F0.707830156844267
tp172
a(F0.7171563623743049
F0.504028272946516
F0.5080656616776078
F0.1885997023884899
F0.4661275243007805
F0.052285161874310426
F0.24946963440976888
F0.30672672400584144
F0.2809728353122285
F0.9582424348531601
F0.28206178211779764
F0.37812148978588966
F0.9992387604792229
F0.47955880489990965
F0.6190186998670053
F0.008393029151998244
F0.546527209712828
F0.6338853599093197
F0.0215807185798913
F0.11567403613958838
F0.0202968829267528
F0.02563425969477162
F0.6440214600057489
F0.3086146942064829
F0.7954070164451784
F0.43503053126703217
F0.5366912156057454
F0.7255946938730194
F0.5955617020034291
F0.527449291901208
F0.09415935390806796
F0.5189361237928292
F0.7435639713858212
F0.22843390179623246
F0.9342214409068319
F0.5597524626588699
F0.1791612926819044
F0.15559486839433723
F0.24483407426214587
F0.2988110920337308
tp173
a(F0.27321658125633663
F0.6759304339486939
F0.5993909870299169
F0.28792818609481075
F0.5896592902363833
F0.1973024749869513
F0.42996520216413625
F0.8847086349680239
F0.7356973046359506
F0.8830610112283842
F0.8007515446351421
F0.6704414195797771
F0.5117992817214051
F0.2142599297494423
F0.10256221123323661
F0.271868441551801
F0.4068804355850102
F0.9010505502892474
F0.47654213275819435
F0.5607926892061186
F0.6287051068607862
F0.7893297290543856
F0.5091975622252006
F0.4681900097299294
F0.6329053324521011
F0.44651690915569453
F0.030481667790053235
F0.8466554164906281
F0.8435361238568051
F0.23865013668583002
F0.6911704784514292
F0.22123400759178402
F0.7806092423734474
F0.5112905704219594
F0.9114413728817177
F0.39949541896675445
F0.17529037163507
F0.7793672709594603
F0.2740397720812312
F0.6171760755276846
tp174
a(F0.8529157335532442
F0.15883678882943497
F0.9052925952927184
F0.5627932893641547
F0.6964877332930098
F0.8526606481738057
F0.8316676205863067
F0.10298056989278548
F0.7135702685575741
F0.9585812409990939
F0.32296532346493334
F0.24972114570112902
F0.7615862505210595
F0.412377676887582
F0.8299095531066736
F0.2807958640474433
F0.6165628867991336
F0.6374965425555246
F0.050945860649100894
F0.691854512172503
F0.034896104986494425
F0.2569453221218101
F0.8049424877028613
F0.13460402735805133
F0.26483765923405533
F0.2686850721318026
F0.17055536071239696
F0.647394759702404
F0.29948158739892494
F0.8746344141739255
F0.09004369433018977
F0.19992932871943625
F0.8967095443799408
F0.9398100204370349
F0.753135086201479
F0.6402331950001372
F0.8554672491708818
F0.7328393906080228
F0.5120801247206055
F0.6916956990960179
tp175
a(F0.16595519333157682
F0.283391629628598
F0.7162864501442276
F0.36330242428868964
F0.4252217829941951
F0.443287436448509
F0.4138176807601356
F0.7243386456663816
F0.3022873216715567
F0.35900077443540346
F0.09763301052532725
F0.8627198021961372
F0.6815613485198867
F0.43645222607738055
F0.19375769382884966
F0.6582315446314473
F0.5267496699233936
F0.6926901577476258
F0.40751920215645143
F0.7129580444907953
F0.20543689095637707
F0.3279799398580151
F0.18707872229789013
F0.9605976618977239
F0.12836220810063448
F0.27620821502171
F0.772018382434502
F0.15896254471652993
F0.8018479153961883
F0.7523374954513088
F0.27596914528362104
F0.27664746136703666
F0.6706299178777093
F0.9656048659557599
F0.6119468708289275
F0.9251712770692623
F0.22912722031897925
F0.2786676081738336
F0.3606844179305635
F0.6437283157836303
tp176
a(F0.771917187498068
F0.7753370327134792
F0.8921237981114183
F0.8072120341917838
F0.4580343080218996
F0.9863639696698796
F0.6831932051229558
F0.11928212228300272
F0.89615526796191
F0.20102184975248216
F0.6941601301569063
F0.6084153607011084
F0.8407362865545974
F0.030935769616451503
F0.620215637682674
F0.12274064515915795
F0.07641033498343852
F0.4548639683598742
F0.39451021145469967
F0.09197652661329414
F0.5203907689820916
F0.7318672908320006
F0.6548001645052045
F0.04078339744763426
F0.8449219297919395
F0.8280681962927573
F0.34803947849383243
F0.5278886802045615
F0.7369495809099578
F0.8044079515482341
F0.7287384620295483
F0.6582073621666961
F0.491249473414065
F0.23300759738148413
F0.3352434181623273
F0.20000970110073313
F0.3217288662913169
F0.5512031340175648
F0.8219370024177979
F0.8625388265151122
tp177
a(F0.6863141234168713
F0.4188402009899965
F0.5734285585366561
F0.6681504907975434
F0.1221008254329582
F0.21324150184878832
F0.7334728458871017
F0.5344433614300418
F0.3618530673266833
F0.3942485759333033
F0.9813102423990401
F0.9104242626590071
F0.3730540168492362
F0.3579914715537559
F0.6033756972598882
F0.6746375104651278
F0.8767953672222648
F0.7174875258337146
F0.5298225962560853
F0.5705245893406411
F0.7384846095723565
F0.17658584646240116
F0.25234850164697964
F0.49589697652780207
F0.2640793151967673
F0.12031369536083614
F0.8457474597639696
F0.6871371861420936
F0.2551264693538635
F0.0017886245358464947
F0.9573884735349295
F0.3306057334500373
F0.3808873736772117
F0.1853795169903083
F0.11581438674062716
F0.7403458682617128
F0.8630432747015229
F0.439507455048442
F0.8267658366533691
F0.8343093032965777
tp178
a(F0.6163203548999545
F0.8365884531767704
F0.14617880624282042
F0.34965908685643554
F0.5461851327987973
F0.9955165505541146
F0.5940328981220984
F0.7336414994920647
F0.7169461910754324
F0.8592575850132141
F0.9418510781569939
F0.16397751169967767
F0.9007755345231689
F0.4979807381303304
F0.6245615899511835
F0.07968805630073927
F0.2518903210710096
F0.3770876032158955
F0.3171014925351433
F0.13053946746951928
F0.6168946320597369
F0.14926662845537586
F0.37577351070275744
F0.0648437682634534
F0.9699717222939499
F0.5449522167920585
F0.10496765019621201
F0.31578257619071093
F0.2638803949474712
F0.8591163760655696
F0.7842710824088728
F0.3778295114176844
F0.76771878853284
F0.7986210904980832
F0.10158473420792968
F0.36114035703341885
F0.77405478715628
F0.3796525915699007
F0.1410642200192197
F0.5125597608892535
tp179
a(F0.18529703508012907
F0.891205288011444
F0.8743452854707067
F0.5735503579480027
F0.13014475203619724
F0.8311688349450922
F0.9009236744632555
F0.3493264710845809
F0.3389740987177752
F0.19097876620241216
F0.12433698710232088
F0.3426361445305791
F0.5439702484924803
F0.14132986266666636
F0.15345049144068268
F0.17652058348620847
F0.7135169258382463
F0.7121118172530262
F0.8321594689990892
F0.9676210793723886
F0.8676346430202726
F0.686465216243385
F0.03964718309957005
F0.4877043378677849
F0.10278839920338367
F0.4271949352305091
F0.06349018656146532
F0.7130223599271397
F0.37509779828135137
F0.30751015209019905
F0.8322916597149023
F0.659407738858089
F0.9439932562516561
F0.9215859788955257
F0.4828433663110627
F0.4046442142797435
F0.20605145740554776
F0.4743121760284613
F0.7551853563698647
F0.008303410020232938
tp180
a(F0.20958415682426002
F0.36732285694650224
F0.6814024783647946
F0.8804979582367026
F0.059293298436442265
F0.19250459909208018
F0.7627669687995285
F0.5534068416893204
F0.43857120066693145
F0.7543056454139494
F0.4129245942342433
F0.11966001003795734
F0.7918478886137684
F0.031618951539378326
F0.5603132669002883
F0.7803716928933339
F0.9635558571646442
F0.11238018369898917
F0.35770047002041805
F0.24802607336862315
F0.4811835502434936
F0.326075991518464
F0.1733199648677396
F0.2540845177578892
F0.25865822124929316
F0.7203553631839106
F0.8371028737080024
F0.5465983577145902
F0.7999059312444923
F0.6823843208045617
F0.6893516931460393
F0.29153681887609606
F0.03840476229928513
F0.296478315501737
F0.2988441957553173
F0.8776957343794896
F0.6803293658879354
F0.6300971438593804
F0.47433378293718287
F0.7264146417847429
tp181
a(F0.04600237164905807
F0.7454639345337764
F0.12754442381168962
F0.9883287241084808
F0.7122031459632425
F0.4042306230893554
F0.6244359835502209
F0.8322349070525693
F0.37450802047812093
F0.8048835290117682
F0.3825961937511332
F0.3992670931430432
F0.3564842622421729
F0.7356547137267699
F0.006162540494119573
F0.8570347846689542
F0.847457095381519
F0.24462904930685536
F0.3032135962428173
F0.6077700419942083
F0.5874030507379
F0.7917879696249465
F0.1774410602687594
F0.011505234492402705
F0.09119542022925775
F0.236440356176291
F0.12624253750483083
F0.5915018149261037
F0.5255554949131533
F0.5553174441705779
F0.973278821697
F0.9519169790565124
F0.8151381198028468
F0.4349676170196879
F0.4277941586802857
F0.9959805704707922
F0.9077839043556488
F0.36636478117134597
F0.9589723618224707
F0.17594829254014155
tp182
a(F0.6442238288953751
F0.6610271203350399
F0.06494706019715368
F0.18484963821141265
F0.05485143757383237
F0.1406189088728974
F0.2713659020047241
F0.4725204575011286
F0.5568656032540613
F0.3811060022023647
F0.9659529603706819
F0.22390831223626628
F0.1304777132714776
F0.7164379028467611
F0.20972608667777248
F0.32467598614380355
F0.8867851094152838
F0.20215039659227863
F0.29625372478825485
F0.1199774236201131
F0.870518031688439
F0.03152340794740904
F0.41838545058019216
F0.38873835840670656
F0.6773668802330842
F0.8286201773576323
F0.7700055300772042
F0.1051570931629342
F0.006498454543412691
F0.2165464908819157
F0.6912334225909855
F0.1769948614053889
F0.01902877125524538
F0.264161752317999
F0.8937611594493835
F0.630970049662838
F0.7947410918530478
F0.8792694659456842
F0.8334826751366904
F0.033316523653655894
tp183
a(F0.7121637262081906
F0.9374343708475016
F0.27100110287254975
F0.643077115652048
F0.3148832822212415
F0.058428364517869036
F0.7225178084032269
F0.9482948945004545
F0.48060389146144133
F0.2955091720331726
F0.493250518697377
F0.9365494594973307
F0.9567986376637295
F0.7206842914060836
F0.1797245573475117
F0.4400294811027121
F0.1064576811094583
F0.8308573381269987
F0.697413421994161
F0.38490471918772384
F0.7046943526676664
F0.002086226256394652
F0.6711549790159607
F0.3618595686424829
F0.4640350977329055
F0.7512239103818757
F0.9305519167816857
F0.5746188713465739
F0.8955764581084841
F0.309206441182455
F0.6145367418570231
F0.4712990214781153
F0.8500419534021093
F0.19861711574901986
F0.8040874490860628
F0.7393947293310323
F0.15859980335885426
F0.2264617660424092
F0.733685111858716
F0.4097484552282742
tp184
a(F0.0032048385591095796
F0.19927601228053105
F0.3952251363402044
F0.48470393719367044
F0.6312890366216428
F0.9790675051740991
F0.02472699925020516
F0.5237454375981301
F0.6082120792791231
F0.1310887771236272
F0.567883288107163
F0.5889523634936314
F0.12096538706998816
F0.604375073576091
F0.9706987127559602
F0.6485019959323576
F0.8977890279377498
F0.7109940304944241
F0.5293194133245769
F0.7294782343143517
F0.39395977236867286
F0.42151455950263195
F0.14885532452136108
F0.4146542468747828
F0.5123569995789289
F0.5576003145938501
F0.250243875383797
F0.11752666718717109
F0.15169172526719743
F0.23992187354014505
F0.4850470390506424
F0.225987332539624
F0.6058795811369784
F0.7747518502413511
F0.43483192054181585
F0.6860976048546611
F0.44012114175330175
F0.21617190952086218
F0.03861634571164796
F0.599472569891703
tp185
a(F0.6090186516126004
F0.4135456573438411
F0.6728964191291159
F0.37059242021349137
F0.5589269293577366
F0.35793757126181835
F0.10312626433122762
F0.559100027784884
F0.2172072355524849
F0.6958299873931669
F0.8909592267317968
F0.48755231722447234
F0.6043666751530855
F0.4120088824917749
F0.5149836868009879
F0.9962137903544978
F0.9059882074838289
F0.29298055098388365
F0.0076782522408396225
F0.5849890898913628
F0.6639711731680383
F0.3157031659880507
F0.5838288703184811
F0.053645676155261945
F0.15847599258920442
F0.5708139945667325
F0.5655124035148416
F0.5939424859642564
F0.8268941608355453
F0.26833617755982986
F0.4805328774371379
F0.6777648430630241
F0.5306966661321111
F0.9437687898453959
F0.2201932436439783
F0.29449471998672416
F0.9310049831728141
F0.3732108059491326
F0.5555049584978294
F0.6645313658594312
tp186
a(F0.9118957884067145
F0.06607809605234072
F0.6259044028260304
F0.8443761170768205
F0.01951840858063536
F0.4248881759954328
F0.7799953207869119
F0.9124056064872393
F0.23461218457627397
F0.3767666634636292
F0.20782093321343076
F0.17121347315810842
F0.6204965032019835
F0.500167558813035
F0.10689749702361961
F0.5912826479258715
F0.32471796062198177
F0.8897617734411466
F0.4657514145821895
F0.007293664322047477
F0.6414658952165774
F0.7903848081566028
F0.9150055396774209
F0.3838803832462738
F0.994963065558625
F0.007617127183815353
F0.238320891332917
F0.33366007521970475
F0.5825674716579228
F0.020409503775311588
F0.19539408700977545
F0.6793481637429635
F0.8697507501255887
F0.9638805260519638
F0.2669835450041961
F0.10526899979633864
F0.8558764129253861
F0.7069225169599169
F0.7994684966048323
F0.06276035760938214
tp187
a(F0.08908885462293425
F0.6477485732134296
F0.18296032808228968
F0.08740867084067183
F0.7796946431954924
F0.892526786524214
F0.26823976672407857
F0.6259759470180407
F0.8684033892942948
F0.3525814091815247
F0.5639516307174703
F0.7877807731133247
F0.6754787794937412
F0.7110445293180807
F0.5938298312193142
F0.8319246863350248
F0.18489983955719236
F0.018348519580530964
F0.8196258974148013
F0.9738434532570662
F0.15124159811253257
F0.044405958377013
F0.9666758140103769
F0.9673971419732816
F0.6659684197452729
F0.807493807945633
F0.8973873161371382
F0.21344957151828303
F0.8020965663497731
F0.1637095362555766
F0.4578143239542367
F0.8997060653193679
F0.27554959996069295
F0.8454385957753616
F0.9316276269373486
F0.379110898350732
F0.8423403989838437
F0.1424477758783842
F0.5008813925440854
F0.5858951854449638
tp188
a(F0.1757006896435831
F0.03962286415127991
F0.7564723077880299
F0.4052020415165605
F0.18973307281191953
F0.5779959997971693
F0.5783249686391032
F0.5134551286540006
F0.5925051347141562
F0.3578029399644854
F0.03601791396658782
F0.0924347258753313
F0.5464587005685777
F0.026582746485375397
F0.49200793578491253
F0.8940770159303467
F0.8815644959800165
F0.36050547826918466
F0.3804090918131391
F0.35269100852866675
F0.02325215244456147
F0.8250423461731432
F0.02233607060400178
F0.15009578101300802
F0.9426908920016546
F0.8868583228607941
F0.011775350885011804
F0.5949151311619724
F0.1466097510518951
F0.21822700237969794
F0.0015543958219833565
F0.34404796997829357
F0.5242987001585787
F0.12711899611793387
F0.420591364574912
F0.7335836204572556
F0.5237552043925858
F0.5161407597857868
F0.9177514301925862
F0.18908485592092183
tp189
a(F0.2159622449177645
F0.2255778600089131
F0.057961939317200395
F0.6633186890593613
F0.20035925358481688
F0.12896971088192666
F0.3143371061734448
F0.10642222634856746
F0.08107781320081131
F0.6903807868155933
F0.14966980991486534
F0.8261433298393948
F0.9926594378195343
F0.11648982509361838
F0.016978576507073018
F0.11275165272195242
F0.23097834628998204
F0.48691855805590656
F0.5847303512489451
F0.2904936852188209
F0.3516743147820377
F0.5337781841439442
F0.6761471634897166
F0.7000804140712649
F0.6444855900789558
F0.716947705880817
F0.6563910325487221
F0.49003647131747197
F0.6150846154231695
F0.6605132064939886
F0.08234746980501462
F0.8343432599272748
F0.7493283217203731
F0.6113466552060914
F0.27552970777735075
F0.06257539158407843
F0.34467373791591205
F0.16152193704952378
F0.6053039010483922
F0.6711894435945991
tp190
a(F0.8727986867828655
F0.9779997072155652
F0.9391829738225371
F0.3330507250378677
F0.40922971327755364
F0.47315741749111306
F0.9119338089968025
F0.8057540006842282
F0.010723630428551956
F0.5732228726954158
F0.8208649055124567
F0.6318967700040141
F0.6114227635533597
F0.2065440558481837
F0.024713719318996685
F0.009954313911808788
F0.9215033539179233
F0.4994279355736113
F0.19090360643548732
F0.6258087490527855
F0.8790806152551163
F0.6477030863500928
F0.22645810983202463
F0.5311884432905593
F0.9993783370906972
F0.2703791106868113
F0.00666540902226076
F0.6514243791389749
F0.8682932766343624
F0.2330435732672338
F0.5696659773427942
F0.7975005113572087
F0.16110095567138694
F0.15451814903967254
F0.3107390391180692
F0.8586437021807352
F0.033391421206409144
F0.8748112586107314
F0.8906081631833445
F0.2333038674870913
tp191
a(F0.39590172733440776
F0.9976595925486041
F0.3175405434200873
F0.858510983565231
F0.0602088745432221
F0.6856259993548907
F0.9279779954267731
F0.996652134615338
F0.5934684483325235
F0.8102992256201607
F0.3030628295118334
F0.5127278501645983
F0.7365038387441154
F0.11772085690226863
F0.6404814868912565
F0.9482225397096276
F0.44055008088694736
F0.002756880577563292
F0.684824883130093
F0.49199977407734874
F0.7505455260167981
F0.6692616555748475
F0.7131109582667641
F0.2449894555180142
F0.7676414670538779
F0.7409975390352784
F0.2720586330674104
F0.09853450258782692
F0.5098845450967994
F0.7717825589259047
F0.3863120795420796
F0.04434760840525043
F0.9855030036924695
F0.9637248288177341
F0.005297803155035474
F0.3880305900439026
F0.11334049366668009
F0.8852372379277862
F0.27854639812779114
F0.5355167297490454
tp192
a(F0.48668468341762916
F0.6275756375216677
F0.012762440956073262
F0.5325885858283604
F0.6340176342937468
F0.4457443107976222
F0.45987162019254135
F0.9923770302244216
F0.6741633868137483
F0.7422969350457945
F0.9059393818374697
F0.5631539150457923
F0.22708690404094511
F0.3907242547691747
F0.7397717605303242
F0.7180805585963425
F0.6482444464803123
F0.256525974424613
F0.4503742219643816
F0.5496691017107135
F0.38096737891984456
F0.3584136896480291
F0.5515343598167961
F0.24873876390736116
F0.6229829955520099
F0.46834738676170173
F0.021479371867077157
F0.027991906030503944
F0.2690090414236094
F0.05192415266307604
F0.09184247104786725
F0.831255268182806
F0.7324252813611787
F0.41882334779103514
F0.13868771521582712
F0.4641835961854609
F0.6138409941960297
F0.4883453245281091
F0.05670489121332778
F0.6407902054795315
tp193
a(F0.5952242290608349
F0.22112659705152893
F0.7935968824585314
F0.547539648726595
F0.8985671334709857
F0.036423763266562714
F0.6074236862069062
F0.9998574681220509
F0.5057134503384264
F0.27058910123845326
F0.7807698757566556
F0.9014690037199998
F0.994239709568403
F0.5662191010418753
F0.3559432826171044
F0.8157046675752192
F0.9730509129796415
F0.7458992002679182
F0.8962593058736973
F0.5140607555119754
F0.3405562419065463
F0.7553847990106576
F0.849045159061615
F0.39416957823765897
F0.868951570153739
F0.0358365075201631
F0.2110527521469413
F0.582202868016626
F0.3797376433472419
F0.4345679856183895
F0.8788653225450163
F0.7655124453634261
F0.9356873070077838
F0.04852509304517727
F0.6157514330335399
F0.4852650374164893
F0.3854755975645092
F0.2563099854134575
F0.5178396801420585
F0.7115227628536924
tp194
a(F0.459777159143677
F0.8733463136677683
F0.941854616181991
F0.9405552802231107
F0.7475843110697625
F0.36235480342330295
F0.6306603032508931
F0.1849254795808235
F0.2567834930839148
F0.5443170978515731
F0.21372949765871085
F0.7608786658108719
F0.7387138597982036
F0.6540905937486661
F0.992302279671281
F0.10086222535380995
F0.4368280336228457
F0.6959001278478971
F0.4683985164970369
F0.33185635599839636
F0.9718916280331028
F0.09335171213632998
F0.9209039516223376
F0.8252867019937907
F0.869666289163171
F0.12086105962778781
F0.736175190671147
F0.09939458833242265
F0.4953593476059196
F0.34193693241437384
F0.2670289134115743
F0.21249824414187723
F0.6695735959206671
F0.6541567856436689
F0.926003356952383
F0.29795453090122603
F0.43263732529968923
F0.08591817170685812
F0.8012300040034336
F0.8376828942655925
tp195
a(F0.6344872998879756
F0.33416266382014526
F0.23371280136958528
F0.04191150698985535
F0.8723329438490127
F0.2578093198534367
F0.03447933313788687
F0.5997952038077576
F0.9306757646901752
F0.21129736689615208
F0.3078867752268196
F0.9496278583372036
F0.007341297521996748
F0.13925937664292876
F0.4309353651732818
F0.2813096602077836
F0.39396128480853854
F0.39468449673808415
F0.46453623644198627
F0.5759096209470078
F0.1400178580688728
F0.7741095015139341
F0.2636913835417144
F0.013918036246652665
F0.5441589046486375
F0.7312630492189053
F0.9193271450098248
F0.7150171040756946
F0.14903817185317658
F0.19991272775574886
F0.9642166421836359
F0.7047180469602529
F0.7179434203049717
F0.12292234309478767
F0.983855947801371
F0.06561073044350463
F0.3713170615250825
F0.6953681400150333
F0.5974762869797527
F0.31915443129193555
tp196
a(F0.010478463923891068
F0.23702630918969658
F0.9475045043198834
F0.6980450296236194
F0.0724715089694703
F0.25233916878634943
F0.6831893369120056
F0.14981802657040855
F0.40129788068893646
F0.01017326795914475
F0.5048426303753486
F0.962421160513259
F0.1829113854011668
F0.18466359200100202
F0.018621356596593586
F0.3943443391373358
F0.45491262609747896
F0.5174757768422186
F0.08619647260607755
F0.666700622022346
F0.4011561047106197
F0.35538292474919597
F0.737755705488226
F0.895305172201749
F0.9486014873735346
F0.8520619106526331
F0.6476710168812996
F0.3386540070288292
F0.3347259650669675
F0.10644509580063033
F0.5873001784578843
F0.3634733457841369
F0.9280540829891025
F0.3135584625926444
F0.05932061870995897
F0.6285012787639636
F0.4827144022674018
F0.9042173129259637
F0.9162149970322133
F0.008704179772693776
tp197
a(F0.16616862703177526
F0.3236782799480896
F0.2950283566626183
F0.5695715356082138
F0.6599728265447575
F0.5132832251130739
F0.9238851084130637
F0.29281000688075864
F0.01746036075037538
F0.7267400335330725
F0.09230363762061711
F0.1283805223435457
F0.8244316625162195
F0.32099603204285265
F0.6611820006826731
F0.8337877695862898
F0.5880536737913552
F0.7282240879148231
F0.6391610624522107
F0.48538462513324754
F0.8532605139473772
F0.39854510323089065
F0.8080439563543138
F0.28855138823644866
F0.6944932686800774
F0.843617996783909
F0.9358513371150056
F0.09083005868209382
F0.07560263028407
F0.6310978808624989
F0.5095926725006725
F0.36594700679613346
F0.8700989814487242
F0.12365670774626247
F0.7631014383678266
F0.8518174710398536
F0.601957363870308
F0.2092496851319684
F0.17705426522188805
F0.9374860943990899
tp198
a(F0.5929662273257628
F0.11630988809023901
F0.304160600231866
F0.940318449214256
F0.04959899320303851
F0.8262066945742134
F0.5201317406319776
F0.5190481891573082
F0.7941135117168813
F0.5767658999494156
F0.8141928880404236
F0.02665462557135112
F0.9737418261411943
F0.684398711625136
F0.6412275571622008
F0.10823679772605654
F0.27745410663591097
F0.6792831040016496
F0.5522388421849773
F0.7661946328402959
F0.9979766547355987
F0.6867525228942707
F0.46207549264257364
F0.9090456012190191
F0.8623650110669238
F0.6824788777730074
F0.08880062451926163
F0.3522124962685572
F0.916286703404246
F0.5418041296619952
F0.8665861082076795
F0.5800690920071191
F0.5394142099973589
F0.9851706482895833
F0.6211983700840319
F0.9616155865970145
F0.4673833723665941
F0.950694041738377
F0.06524444815572716
F0.3176671424042562
tp199
a(F0.8411623192804638
F0.0883849771029327
F0.567446212377332
F0.060927050880655864
F0.7132207469759316
F0.6708868061458915
F0.4390393384485931
F0.6667759180974538
F0.706676672429975
F0.7367676239902142
F0.4568074540899397
F0.7160192272836096
F0.09506457279177782
F0.4943523294391604
F0.7536599711369357
F0.9184867524602599
F0.8296812535060251
F0.7718448567683972
F0.1261196416567847
F0.24239120971614825
F0.15800943080649743
F0.09077435050046156
F0.8209707443693669
F0.2900740457475909
F0.6197386046316401
F0.693306645583047
F0.09851748303441132
F0.5649674346600824
F0.14899307519553318
F0.22734430747938306
F0.7271092469865281
F0.4529324367304417
F0.6790102382109494
F0.7831192127818277
F0.24259588705236645
F0.5328842023305396
F0.6410471172325243
F0.41142468508968244
F0.11812315844736188
F0.049137817380548454
tp200
a.