(lp0
(F0.8009439979118314
F0.276129372191539
F0.26623402546501107
F0.31782960436526453
F0.7695055784940666
F0.9216704220529599
F0.8188158745861763
F0.3082029323450949
F0.9130376737652477
F0.753892506832832
F0.5947800118212088
F0.20319939989984737
F0.41219862362323534
F0.39006204806294154
F0.07975914723727306
F0.5976624601977492
F0.989815257681334
F0.07735759592198932
F0.22826642469751557
F0.9423069738943141
tp1
a(F0.4317602733712539
F0.517127689679319
F0.6373865251351374
F0.7233073955401437
F0.3825423656272199
F0.4234277532560865
F0.0945381536349067
F0.7644723514729012
F0.5506910436164071
F0.3395657050247486
F0.15126569774325083
F0.8033558010472235
F0.2713466267781076
F0.3731614509042912
F0.8153869466699117
F0.5982417880330778
F0.8319795354262843
F0.820990063546792
F0.7979509159621839
F0.5677914662880338
tp2
a(F0.7202841249814065
F0.1769352006331658
F0.9075559600069752
F0.6874352163489243
F0.873661228334371
F0.7178125629211233
F0.8379422169726124
F0.9817507081695795
F0.1589641258052823
F0.7320207076872702
F0.0700713409547229
F0.4314239943645438
F0.3662735164896015
F0.3945187755598957
F0.17065883694738204
F0.8305793222594626
F0.3667949375491425
F0.6440258110244064
F0.4448924973760807
F0.7957458466271694
tp3
a(F0.27928058437472714
F0.11044356447843051
F0.15378693015853173
F0.13435805335992534
F0.4891456718965891
F0.3528559325164994
F0.708070422524443
F0.1464784010641923
F0.341475714688125
F0.8066530916294458
F0.7198559133668391
F0.618998439538144
F0.6432078510864088
F0.7986596706355387
F0.08497955596227469
F0.24575376769572865
F0.9363017254441756
F0.16517007944271955
F0.35328381045998514
F0.9288897418604896
tp4
a(F0.8117753060774836
F0.39077004179650066
F0.3530994803286205
F0.3592407744238616
F0.10802187340129177
F0.38314763880103286
F0.7638396769955265
F0.11541166100018507
F0.5498114156857787
F0.20693509783452502
F0.2830645849313156
F0.17163020291763986
F0.35317890443550337
F0.5211176580861041
F0.379849903426417
F0.008904183704394275
F0.5368135438860104
F0.6956220951327997
F0.927173597634412
F0.7050579860616233
tp5
a(F0.15534448651740862
F0.7317492258610724
F0.7567540550509464
F0.6896022551137403
F0.2669471224583603
F0.8267585136975539
F0.610787972431158
F0.5183247425131464
F0.5833230873349776
F0.7567434836151302
F0.7767051144619642
F0.6707014909333575
F0.9706571540236629
F0.7924036333122007
F0.11299586087890068
F0.254524932377841
F0.8305915958839097
F0.4369321982921851
F0.7812368441912351
F0.5109424549960667
tp6
a(F0.9369652524934349
F0.588717898627518
F0.6580342958811639
F0.6747444389035083
F0.4744731523258612
F0.021794583291047
F0.08057973005467622
F0.7915450063254525
F0.6544057126594873
F0.24333156784925736
F0.490407083014334
F0.7499102827602598
F0.8319376258770756
F0.17103752114276483
F0.5129121688979378
F0.9371952046762025
F0.7334749245506618
F0.9316837207167072
F0.1956076053523611
F0.6885882388278185
tp7
a(F0.7946998339679947
F0.9056925124452163
F0.28337475572644444
F0.4460224229690509
F0.1194877521410691
F0.6448777222520465
F0.17607152570504858
F0.7734515850042418
F0.7360957612004636
F0.6676456150949026
F0.10005492510860536
F0.4348228252855224
F0.4120763373888653
F0.08391819317877658
F0.03980180369034625
F0.283255667544259
F0.8019176145081353
F0.8901532409085964
F0.8898015969092282
F0.717555156486876
tp8
a(F0.5089087442626057
F0.34831790485610525
F0.03630740286899681
F0.8656441200093627
F0.48056426529673246
F0.5710666434436116
F0.1416191413300213
F0.9783386370184919
F0.8245318598313326
F0.23971748382582259
F0.7916795806200609
F0.037755965958526594
F0.824544359755299
F0.01739262770408523
F0.7225876396705752
F0.13101667946416096
F0.07284903971066892
F0.9435378590334025
F0.022372252016526595
F0.4992731091871748
tp9
a(F0.9662638808313623
F0.7171664771426407
F0.7187158385682494
F0.6453409862038993
F0.8486114130090078
F0.661005939621618
F0.7494109427898554
F0.22802042409151912
F0.04826778536091747
F0.3821075518738223
F0.35932714631226903
F0.19383623642752545
F0.769355114681123
F0.4157775424765695
F0.04161411514458069
F0.4519316777309712
F0.7795736935918195
F0.35605869147217706
F0.385620441596523
F0.8814946801572248
tp10
a(F0.7778819739157773
F0.8915587366311178
F0.6947738473137073
F0.031688132281824766
F0.39059435146240473
F0.47729674975024927
F0.9713682360283314
F0.13315657147423698
F0.3573411533814487
F0.6913294883882439
F0.6496048199290316
F0.8393802297360932
F0.4669595514521193
F0.4344200712181734
F0.38612457657380295
F0.6910387309650419
F0.47654893467349724
F0.09022325007026766
F0.2728287464748377
F0.21477643052991047
tp11
a(F0.5006669825760584
F0.9292068150238596
F0.44237854741640514
F0.9430187012001939
F0.9918094902550005
F0.45904282404212626
F0.8365768042995465
F0.5506562921257546
F0.14119046744881714
F0.8341910660771895
F0.8174297178013037
F0.3647693396621964
F0.45416064559424163
F0.318099730514499
F0.24651240026084575
F0.8396441528383984
F0.12624749736485807
F0.9419795037102058
F0.5534688060664421
F0.13746023275340313
tp12
a(F0.41312536900319197
F0.7152044782794628
F0.51143752538595
F0.28534505555415113
F0.29930440721682194
F0.5753713229706277
F0.09680240155588349
F0.7621678871701346
F0.819521590290197
F0.9191545248558486
F0.5526328690764929
F0.6301472644289372
F0.4135011172731585
F0.23200417376895854
F0.7026233217256065
F0.16254699826856445
F0.9194466745530456
F0.6046537671549292
F0.5062310700981278
F0.23428045436858802
tp13
a(F0.06576967652642751
F0.8962915995820198
F0.5352185364486558
F0.6721875379009652
F0.6710203461026325
F0.7122865733857074
F0.9532260314063852
F0.771897831812106
F0.4028656111267602
F0.8150195968393569
F0.27292035029591255
F0.07536677999228336
F0.5126972997621687
F0.5013540867408863
F0.5817381375613704
F0.16101465283995942
F0.18480616534792782
F0.2456788862161483
F0.0014553068145112258
F0.11232297594868113
tp14
a(F0.5592035818108992
F0.7267815405958047
F0.36212378602164896
F0.5127462171182706
F0.37522489987507757
F0.5919421792187302
F0.5146455167941795
F0.9922690015160165
F0.7154168029775695
F0.5793904549760637
F0.05511372622500088
F0.1887928600346609
F0.8966726389492186
F0.06846364490139767
F0.5018555190465014
F0.23304409427529316
F0.07624434930976898
F0.6139261525278157
F0.46736649126169816
F0.15086379138336847
tp15
a(F0.01482094410196333
F0.48684889028710354
F0.8290490608630681
F0.0523946602753983
F0.20835194289614622
F0.3002570832618713
F0.2854089431736604
F0.5705797503877567
F0.34757659600579105
F0.3361694897529349
F0.05690466201934741
F0.32084519415092705
F0.1159712732603837
F0.6068181185361429
F0.3973804660187845
F0.563304513887293
F0.23816646201188496
F0.03126131087280826
F0.3154130776001701
F0.5572584633354917
tp16
a(F0.5528454647553536
F0.0706348545640546
F0.24241488142378276
F0.3910289249848583
F0.4190299404638055
F0.08023586522717818
F0.9925988009790614
F0.30147389310525885
F0.9772220194061855
F0.010647963399335825
F0.3354076438501329
F0.1659026908530008
F0.24243565751401708
F0.07396000997452934
F0.4145143555132281
F0.48184655300586243
F0.6951597589183779
F0.7203060270645779
F0.360104974449887
F0.4482911246870305
tp17
a(F0.09610271885525512
F0.2150898900209579
F0.5639867130840345
F0.37062915213409
F0.7354168582775534
F0.091245888266268
F0.41456526246566006
F0.4199069719138171
F0.4391254428090572
F0.3986777818127095
F0.23285817461718916
F0.5957322083766384
F0.8294793767155623
F0.767376450984803
F0.09414462625745013
F0.27644303220016
F0.9930287251127753
F0.07429386439741348
F0.1380563778328282
F0.4116254869936551
tp18
a(F0.061807679026496976
F0.05719379443882011
F0.6270423768966422
F0.09457360491376221
F0.4582006252948948
F0.6305485783751248
F0.04275038487716887
F0.7493593687507079
F0.4086598774974406
F0.8468237282750429
F0.600178311440469
F0.7333652191053502
F0.7044565130752263
F0.5774366089999814
F0.6206519478393266
F0.6285372026447476
F0.7128753343410383
F0.8636222485847909
F0.22620602602186213
F0.023009206376532032
tp19
a(F0.5628371343535771
F0.04031471821956201
F0.21602959494781693
F0.14497385889112768
F0.3896192978560954
F0.840184147238427
F0.48352809071361313
F0.09691627290971128
F0.39841538445813784
F0.8217344832602423
F0.7715081238442877
F0.5609950775476623
F0.6519428020624694
F0.3918574244289048
F0.6860312699354911
F0.42057860836996097
F0.7988225974081098
F0.2910600718715177
F0.34148120829165685
F0.10714408255528185
tp20
a(F0.051002671051537773
F0.3224447564357227
F0.7621903997504303
F0.3895027931461693
F0.8581642373883948
F0.20166810162677196
F0.013218512256244375
F0.07560963293190237
F0.6296097490981788
F0.7850632353575648
F0.7076002221791629
F0.5276432112689576
F0.7732587104859489
F0.9967486406912296
F0.5065293062944506
F0.4154994471611191
F0.9921583707802286
F0.9890220936143036
F0.3693957397199834
F0.4283092584853886
tp21
a(F0.47310686142012437
F0.18153288770947718
F0.5448649170608435
F0.792977733721846
F0.5521564684899471
F0.9769082697278237
F0.6754329261969382
F0.1420065070813321
F0.39950810149990557
F0.6477496518184411
F0.4654171465572503
F0.2821433639571971
F0.4190717758158078
F0.05277920584134077
F0.9649144882331394
F0.8943325985535957
F0.30824212678341145
F0.9067432901021754
F0.8178439179000108
F0.8888512110259311
tp22
a(F0.4913419785411387
F0.06829417129275706
F0.0012341098246908544
F0.6622479797192667
F0.9606725834171567
F0.9400731627757123
F0.8418802302794348
F0.36102230997091456
F0.6024733890183178
F0.2343208746674984
F0.16145990501557783
F0.7885084943960949
F0.1879255623376861
F0.23515870303131192
F0.9178399397998536
F0.9454073820231488
F0.7026366522688678
F0.8015962704929481
F0.7106345191137444
F0.23602496366929648
tp23
a(F0.1833376914069632
F0.6525899094192242
F0.7198611614200208
F0.08864191382311082
F0.5458293568410908
F0.20755430701746458
F0.4343182626896904
F0.7601905949048845
F0.5801114071398115
F0.09762011596323328
F0.7859954293708841
F0.09714767321827456
F0.1304278460823889
F0.4067601572777384
F0.9951984699538539
F0.018790432131583934
F0.46356132891243795
F0.1706080017481879
F0.9239977258185192
F0.9170666006714165
tp24
a(F0.5238622608045956
F0.5606478940674549
F0.7985209498982564
F0.07783399623742326
F0.9376966758893784
F0.9731617957936056
F0.10049311066071309
F0.913894605007999
F0.3309846747677423
F0.6418398392330172
F0.4173374859357464
F0.4238877233231727
F0.6151002384307733
F0.5275951203278186
F0.7793258565005562
F0.7676253741299197
F0.22180909475870758
F0.29757964596509023
F0.32544929867577965
F0.8484190388391404
tp25
a(F0.8921896205079062
F0.09311923368675701
F0.33270730272055027
F0.29294399337191945
F0.7455944637159408
F0.5702005716003282
F0.025012052991081224
F0.01579400684744192
F0.5477991229945448
F0.9239264654265199
F0.5349486684707371
F0.2819891365385696
F0.13998491705001093
F0.8807738747055733
F0.7637327566498534
F0.16147493524239231
F0.08563837192661339
F0.017942488538608692
F0.12226763402060581
F0.7438830522941392
tp26
a(F0.9481873858867462
F0.5490962938314513
F0.3558041186141768
F0.42940966474489217
F0.2702437085120807
F0.014380722822433523
F0.8227363339848195
F0.720492657021757
F0.9315011930903737
F0.7272038581983588
F0.8741120495019148
F0.08454374959589472
F0.6305269134649529
F0.7479633619536933
F0.6779462165041551
F0.9415045044418356
F0.9545690409059384
F0.21222604231662145
F0.4671012519369332
F0.12826296741054588
tp27
a(F0.7021587987195578
F0.6500330877448881
F0.7053837104330316
F0.1852294541867543
F0.17361153518996064
F0.6160379114280783
F0.8362409618885781
F0.023805360920627905
F0.9327995638623817
F0.41228175071033735
F0.9428516480180137
F0.8722876876981909
F0.5831611959947451
F0.7713782165335618
F0.902603476636711
F0.7930349018746087
F0.6604060312145469
F0.10459427448156677
F0.27825043212898093
F0.221230684870258
tp28
a(F0.44768834778641686
F0.15688563759393603
F0.9728893425145666
F0.5045895185383358
F0.043425146353515465
F0.46967729213518794
F0.4243123355225432
F0.955386638811685
F0.6932056505699993
F0.4698370993932044
F0.585023234240787
F0.1991477303014586
F0.5152569518470118
F0.18320881702753766
F0.5619384874022899
F0.9287783916970987
F0.6914373003445564
F0.6405855917823993
F0.6254239522791731
F0.4795764202457561
tp29
a(F0.7672198481751507
F0.5573152636553786
F0.5197298060284321
F0.7179273498806638
F0.3382349600989971
F0.40530805695604444
F0.0510790690485039
F0.43728432741709067
F0.282875435383534
F0.18830032113699968
F0.9725555919680553
F0.3187054096512101
F0.6268371624775684
F0.9279431578345544
F0.5154700438493564
F0.7988566268631442
F0.20724627755908176
F0.37431233448582424
F0.656360890370306
F0.7638256908829348
tp30
a(F0.4834186659106262
F0.44125884603445653
F0.5578759962777946
F0.5157744827817841
F0.9835938456565008
F0.1945178514716811
F0.8409364008136765
F0.6207041207123994
F0.6727378347463351
F0.42398795847471016
F0.656277669971166
F0.6802702743502214
F0.3029808186143953
F0.37477934006796476
F0.22231399078917546
F0.5672914407578403
F0.21700087162149784
F0.7505261059974606
F0.8333153802457133
F0.46477838827203155
tp31
a(F0.5099652684881677
F0.6881199205807955
F0.8819743464488016
F0.06925111667754025
F0.4469117215566246
F0.8358502619461738
F0.9489205118226779
F0.7685789048111835
F0.041028042366497486
F0.47329011329542137
F0.9623978754753733
F0.9815603970338773
F0.14863314349256906
F0.5420176767994725
F0.5501151052997789
F0.5769224616120935
F0.1286505512786562
F0.8594347585414694
F0.356273329747804
F0.4030983130325734
tp32
a(F0.6921857196291983
F0.3017300564723099
F0.029131824704912157
F0.26370845684394195
F0.22337175157232936
F0.34974624363334217
F0.731222601151908
F0.47354746558513605
F0.7032011478639267
F0.8618430371260926
F0.0880980219832932
F0.37567555129680275
F0.5229502969905198
F0.9349623161301797
F0.4172586217322122
F0.679850036217856
F0.20692407366335863
F0.12640005212100713
F0.041898757695081
F0.7518243970624707
tp33
a(F0.5288759204651532
F0.7793920257081814
F0.379504921051217
F0.17274509470959665
F0.9372833043930193
F0.45107630563605283
F0.20105535471544567
F0.4613182812277121
F0.8486745461555194
F0.22263453518442655
F0.9527517437263885
F0.41623199782719755
F0.8818703570136255
F0.9183917752630054
F0.4008636072175832
F0.807943223504817
F0.7475244569564229
F0.03710663300880468
F0.008138173917316083
F0.8732192737801434
tp34
a(F0.43509418512935694
F0.699705993621464
F0.36121206498394953
F0.5485503166384981
F0.6566380610937884
F0.9519839598849518
F0.5549947662701126
F0.23303165585874197
F0.09093872124369629
F0.909308144353873
F0.7992262388001664
F0.5006218074914661
F0.057762337231449634
F0.5594115868755658
F0.6046072591700647
F0.1337900067618789
F0.5448234886127313
F0.8711668558758978
F0.7429036680077137
F0.8595636808341217
tp35
a(F0.6192478676610466
F0.8236962239687099
F0.5865945058648272
F0.03563219445536692
F0.08544338733218693
F0.3864707660489842
F0.4114147163644196
F0.8936758300893634
F0.9978952015505238
F0.821639032771128
F0.24305391053026726
F0.03703364496220651
F0.5044054671635892
F0.3767797074327177
F0.8785711481091413
F0.7086156766771495
F0.7170460731279075
F0.2894009199472174
F0.0381343821477973
F0.13188896681599271
tp36
a(F0.816185895712111
F0.8130327628364147
F0.5518064259539288
F0.5479684719576992
F0.8755199550551857
F0.1460649430955302
F0.02012013404524704
F0.833946616438128
F0.3476289373378889
F0.6947839529282217
F0.9258186465446911
F0.10285617120315216
F0.18730621569353778
F0.31858009337845405
F0.9607876466278521
F0.10116363939923256
F0.2577931355669856
F0.4016058271150512
F0.14557487735698205
F0.8877302906439
tp37
a(F0.9720953450772017
F0.6976632721921056
F0.7981800724175506
F0.34685548451197246
F0.35713346864857365
F0.37712985759892304
F0.363335312819273
F0.9394212748661859
F0.3307008178688481
F0.6058889018395682
F0.32071676661249815
F0.21307667234201966
F0.2549926092366931
F0.8863287543678231
F0.8804453887653135
F0.3905376592354872
F0.7116659690658406
F0.5732215543149042
F0.1135943286350789
F0.3490904941231787
tp38
a(F0.8388060708034024
F0.9831057675632516
F0.6695300217937985
F0.4108995863139355
F0.20935099812076408
F0.9840176291672335
F0.6418363876579776
F0.3503614588045526
F0.2985952688588017
F0.5659364292461773
F0.2093957168172027
F0.16857848558267097
F0.3047801076349824
F0.636443867534303
F0.7551061760327632
F0.6612001073765359
F0.8717711371204921
F0.3583625195692324
F0.6196525032843115
F0.45372658399462373
tp39
a(F0.3948243905071237
F0.8753253038550031
F0.5715026210258889
F0.39291333048910115
F0.931272563274857
F0.07073697393114442
F0.1099202044052009
F0.07770760743617056
F0.34195375378485093
F0.700532523319225
F0.6751102503459344
F0.15929179970221663
F0.13061226561580752
F0.8993859659071214
F0.4991167169777515
F0.26811986598830906
F0.635855930930082
F0.21630705839460118
F0.687564598448689
F0.7243339678371603
tp40
a(F0.631541769485513
F0.8531372324102143
F0.4564801297090808
F0.3675065087836197
F0.9902331602126033
F0.6860147314952335
F0.6581907203458154
F0.2035755644487226
F0.3304947231538826
F0.306842231444997
F0.24919021715265532
F0.09449615913006881
F0.07570562867647335
F0.9399117755466981
F0.851630228598661
F0.1610922064607846
F0.4807673337005216
F0.2061066186816859
F0.851248356032092
F0.15237137062009487
tp41
a(F0.1967196419627365
F0.9434961375966497
F0.06709847720775886
F0.4563378885812497
F0.9216733431839214
F0.41165212020884656
F0.034169352511949524
F0.7805150129002278
F0.3484751133179782
F0.3953814567832622
F0.3505360926817226
F0.5400551306957829
F0.9449982692586844
F0.4598960163035347
F0.2212821710076367
F0.955008100311223
F0.570049216132044
F0.4412598159134834
F0.7709891551717782
F0.27059287467327775
tp42
a(F0.7913160271157388
F0.27826597762085004
F0.6659502955724559
F0.661332388575111
F0.8439000029448283
F0.5858335414697052
F0.8914991206056414
F0.8488075048411888
F0.8591255506417772
F0.4750024888858605
F0.42060842343789107
F0.6012347042225948
F0.16924721254604458
F0.9903598844587955
F0.9041120604997823
F0.9787917378662865
F0.279111302876771
F0.008390650627405627
F0.7925565734421657
F0.17086088989487425
tp43
a(F0.2777273658762315
F0.033170503055845346
F0.15526036502348717
F0.5215506095494712
F0.9774274836877617
F0.7131849435500056
F0.9510260633498464
F0.9614410578197969
F0.7243667259795422
F0.20387781206558053
F0.9319962029345598
F0.3105825835951552
F0.10056403487802101
F0.17761188617462542
F0.2761615908455948
F0.9982333043939958
F0.6602932956932389
F0.08768555600504713
F0.16736134307073558
F0.2184725841855868
tp44
a(F0.3581516670400162
F0.5671636921211828
F0.9900563795669013
F0.6794382252124759
F0.598026073512405
F0.5254305541498198
F0.610126227414851
F0.7562870578732005
F0.7210267465933393
F0.14962681680402556
F0.4546887896403794
F0.24349164372271603
F0.4995807268491457
F0.19631028283419782
F0.46095002141153163
F0.4678522266608387
F0.6580913152044469
F0.1856094170609658
F0.39214612147211725
F0.08654058574609524
tp45
a(F0.9223811880886281
F0.6373312408932122
F0.48670983171047355
F0.0655053198598079
F0.7847327376522908
F0.14899047990448244
F0.8690034686682507
F0.12023087365233398
F0.2131037317324156
F0.1437025129881132
F0.9871192276358902
F0.36745050474651575
F0.5761658708511054
F0.4802956877822039
F0.4488206444324717
F0.6745292268070175
F0.016649451339514565
F0.25991843501902323
F0.5594714131574411
F0.47434696483841965
tp46
a(F0.5776557155651824
F0.5707717381165469
F0.7502556643743941
F0.6254936958818779
F0.7902734196361807
F0.5128555800482687
F0.1707511435956467
F0.28175384039832596
F0.22227451744421767
F0.4686155484614918
F0.5265325035803544
F0.4077561648970798
F0.6161759851547152
F0.3349573820195685
F0.38311882385479046
F0.17854130832011883
F0.31415555115946414
F0.5754911417306687
F0.7818427745061306
F0.37540432213166164
tp47
a(F0.3506514259472119
F0.2672633924226039
F0.1180079358439714
F0.2254377406746758
F0.8619104743152752
F0.15051817839298665
F0.22193273712163197
F0.5695777232377033
F0.23479950358506396
F0.6897762733920931
F0.6301809623050382
F0.22092263324022432
F0.5275707025460041
F0.6268664773058956
F0.5405327916009957
F0.6240370444278935
F0.6376314992722736
F0.3986950973548484
F0.693294674831219
F0.6173212173052158
tp48
a(F0.5163342646376347
F0.17959622635203976
F0.22329522501748866
F0.1715728537519754
F0.251033863344871
F0.7584386152780385
F0.020223002075857144
F0.0876488819719593
F0.11187715847907942
F0.43424601548842645
F0.2938622246431325
F0.775495712609133
F0.39141468157156845
F0.09006046953556113
F0.3799966375579995
F0.5343017145584051
F0.14634473245632817
F0.6685951907146269
F0.9034611838528936
F0.011501456851540803
tp49
a(F0.7920356037277402
F0.8902736205363785
F0.14366279642963198
F0.5533800989558748
F0.7094237123840205
F0.7380747699784829
F0.8134309386996104
F0.36852519692394736
F0.3834046162651972
F0.8516252285237286
F0.5897060730771653
F0.8268092604092929
F0.4438092329110025
F0.8444742069294846
F0.4238087116369571
F0.3502707854171
F0.8951980793440973
F0.6881066406338239
F0.29821318059573143
F0.6946232199270539
tp50
a(F0.44315755531105017
F0.11039114906868008
F0.5086964813822044
F0.7044638324116018
F0.39349337264958106
F0.3221990836677475
F0.8481660718626093
F0.6819210745029858
F0.7357870779551764
F0.8118534702954743
F0.7911315294503583
F0.5731125775525873
F0.23958317532472717
F0.9965221500962592
F0.47862875311701536
F0.021377960524597284
F0.7091954348415691
F0.3234684708200688
F0.4497363117211022
F0.9897120196291216
tp51
a(F0.5134268662241342
F0.1316441568961274
F0.808050067332869
F0.9107837474750679
F0.9510288734394996
F0.6717844910168372
F0.43188843637269403
F0.3939199863772338
F0.5177872380437388
F0.7217490209563542
F0.73440736411185
F0.07422595877179594
F0.5748448253020725
F0.28946492309765937
F0.8927397097937741
F0.417156314160378
F0.20520578848520488
F0.2551366767970338
F0.6471124039170321
F0.5178715940106867
tp52
a(F0.3014838350240566
F0.8763797251297054
F0.23512631860011102
F0.7672307614510274
F0.3872030362308009
F0.9949540540127683
F0.7828950487702584
F0.41276572708494896
F0.6583792190197785
F0.647897501100796
F0.21337053702848163
F0.4833785147377758
F0.5632570926264027
F0.3691025307882837
F0.7327753459531507
F0.8229077192731719
F0.10721786347199114
F0.11984188944074436
F0.36984533385852736
F0.14659926786477995
tp53
a(F0.7155807160567156
F0.32143253046705744
F0.9433895094097692
F0.6350833716075956
F0.4317130864300448
F0.464376906203147
F0.9977431781103134
F0.8998668080792438
F0.8889627457745244
F0.1505322750466458
F0.2967117028702445
F0.16638267343326096
F0.5301203093784551
F0.6748107700919358
F0.40807836195935254
F0.7295330051946949
F0.5794671171290082
F0.8949420105096593
F0.6485133554268987
F0.903591627000004
tp54
a(F0.131153784539215
F0.28987697422010705
F0.28580962296524803
F0.6290897299585374
F0.06003785617628299
F0.2988486688844866
F0.573321118364729
F0.3515038885648267
F0.2306695581825392
F0.5937618301488518
F0.22434233937045356
F0.8808399176366319
F0.6827269886735008
F0.031650121087644645
F0.29437454820224973
F0.6634717123582635
F0.8092386368514187
F0.5209187756763723
F0.2829678624534939
F0.08644493458825941
tp55
a(F0.16830498527445525
F0.6583039729460182
F0.6290116477880501
F0.4435546520407684
F0.8647925189321521
F0.8344610472155474
F0.7166958905750812
F0.6249857258768624
F0.8626885406987035
F0.35392998754478056
F0.07411322678281851
F0.328579605282145
F0.011783413982831115
F0.4312172325829774
F0.2177027840561262
F0.22368114465277977
F0.284342120251883
F0.9198033940872294
F0.32616165251185925
F0.47220018031696953
tp56
a(F0.19754482157338438
F0.7335405311481289
F0.7515413032157783
F0.05275531154624691
F0.5236522765764325
F0.820864603895667
F0.37888546360728115
F0.6054079183752298
F0.15579421218409106
F0.2950872508953478
F0.24466892609507285
F0.7093046780064947
F0.08422231992366269
F0.9567984139718705
F0.7345202906836907
F0.24200878284208305
F0.17654658086767439
F0.893284159381409
F0.8436382603507704
F0.7938903840213197
tp57
a(F0.4960538360680651
F0.7632973981266009
F0.16690216401702562
F0.24844041631038705
F0.11625737192046393
F0.09212730765087318
F0.15430165408468788
F0.7513623663692501
F0.6185782372266236
F0.9400423894334324
F0.5863933597215225
F0.2699663532262089
F0.07231014225828492
F0.44477559148204093
F0.5742880547868968
F0.8203408795340248
F0.8215255024202821
F0.3033920729982913
F0.26566052309347976
F0.04727391422521732
tp58
a(F0.3759693245739165
F0.9493190201795443
F0.7038539298437696
F0.05179762006919553
F0.8108804362511065
F0.6369116627694464
F0.4346429320151287
F0.09174001767504047
F0.01841401989756375
F0.05436979653667251
F0.9866097325902713
F0.29035964321556584
F0.45671219759321136
F0.5125006138123803
F0.07747117020840255
F0.8772442804157325
F0.8805875588070236
F0.33498408766514143
F0.7458116889597245
F0.8130510740991704
tp59
a(F0.2678829540996194
F0.8451798140922872
F0.329105132818695
F0.07789617595566545
F0.5466972421691871
F0.7833206430102313
F0.5465609359918798
F0.7880103342214919
F0.9519019614344135
F0.858851997624067
F0.7416963132790492
F0.13517806062036597
F0.37724847275093876
F0.3094058858695131
F0.012871122881714436
F0.6300604561417412
F0.9297170639975768
F0.9891973475199022
F0.013769992995783853
F0.3894238569358286
tp60
a(F0.7622617544702174
F0.8790680776135066
F0.4064299903287365
F0.06900045642628772
F0.8399355617966489
F0.0345135614243236
F0.4939284106767443
F0.39065106276379313
F0.6379274408683869
F0.20328526049744233
F0.8609695895154164
F0.5298112387625703
F0.3400249817626758
F0.4057828245360746
F0.9066059227992821
F0.7670960960346188
F0.05725758153030136
F0.8352944488002414
F0.9060052464559808
F0.7534692553501545
tp61
a(F0.6106043847689318
F0.7349729533370116
F0.2758757805660764
F0.18234210776134485
F0.36345958631558917
F0.6732348305382047
F0.03999734452146664
F0.8477974032047682
F0.31460886946243916
F0.2910238675046818
F0.7742324031703758
F0.5820232284424313
F0.8535128766916896
F0.7076188981423776
F0.6497170195690842
F0.04529507413819289
F0.21701675129289666
F0.9057405757688766
F0.3518053006195514
F0.45920111630776084
tp62
a(F0.6917074055722294
F0.9176891802088516
F0.3875175605500232
F0.8022790562442292
F0.45973862705034296
F0.5570568558387251
F0.9677434417191159
F0.517918942385868
F0.3619158147887961
F0.1014689929648892
F0.8942441683737798
F0.13420530726065227
F0.9810444072769755
F0.2766696975291254
F0.31028383776752166
F0.4857908028127339
F0.7297096671086911
F0.12130026654243631
F0.5971177487610334
F0.3489419518072773
tp63
a(F0.2749137932522546
F0.5530055916116868
F0.8076746745043222
F0.2867276299256467
F0.8063396657604269
F0.22754630391891817
F0.5107026333779116
F0.8690079247307174
F0.18433566661948908
F0.18876807506376492
F0.25327095941659006
F0.9431866222661104
F0.22864206128457398
F0.03028658124786554
F0.6424615963787959
F0.7228230015677453
F0.5369279165861979
F0.7815358542928945
F0.7817412282233165
F0.7308815795686625
tp64
a(F0.0640085682456687
F0.09453939758940655
F0.6730757032615977
F0.783594088984391
F0.39393918408467277
F0.9824310556454967
F0.26236118534647834
F0.6829195032521912
F0.7657387875722921
F0.2967768175261878
F0.11823279882216475
F0.8232013153009312
F0.8964562515278233
F0.4439800269596469
F0.4618463923296757
F0.7560482091061853
F0.48227223375728656
F0.7990833328251324
F0.7913541175472771
F0.7993831313148422
tp65
a(F0.510017626797342
F0.8173148091912787
F0.5290094878033907
F0.4758542687900428
F0.9332885786355055
F0.0064756630121273195
F0.18648094006151172
F0.9907588245295652
F0.12084559596367439
F0.6471842772354748
F0.5239251552266976
F0.31601235429979246
F0.11436350615783586
F0.01914446874819631
F0.36936652969479855
F0.29895395831679206
F0.22317959041934154
F0.9635589965224939
F0.1248948344646873
F0.15126548546511154
tp66
a(F0.36048250531031956
F0.3261373176374299
F0.02614518055615611
F0.03489451832046053
F0.5513337375507021
F0.9678769985596751
F0.8889151211075041
F0.05673671900928923
F0.16418660524909967
F0.2276044395120156
F0.3981609767936992
F0.8100676932912269
F0.049179921755668765
F0.3346237737691856
F0.9249604870027276
F0.05231148830010279
F0.7094655548219162
F0.4126836573933391
F0.5579855840462867
F0.20618034197592428
tp67
a(F0.6480054549677696
F0.8470563138857113
F0.9967387384489317
F0.9697387245181494
F0.6614836442830382
F0.2107822669952455
F0.5218657934323744
F0.44901405973966857
F0.35850222269483323
F0.28348944467911485
F0.4335147058026507
F0.00943904747827018
F0.9918795559755329
F0.0008323351922141509
F0.885590350872737
F0.37521385706064303
F0.9488073041644894
F0.43713060316512287
F0.7362119202807335
F0.8765429402847412
tp68
a(F0.3373202832517267
F0.01071144631062726
F0.9102189510843818
F0.7435801535499343
F0.18322751666829207
F0.6511985054559613
F0.006456058860290215
F0.9640158811005369
F0.675080898588008
F0.16470326943397184
F0.26600528068149587
F0.7517953129323319
F0.8526529285851736
F0.7845565835979715
F0.28276951966261354
F0.6324924072733152
F0.772687356269649
F0.0010335127837817204
F0.47581460173200074
F0.21536559196403182
tp69
a(F0.19394031661349675
F0.8075369359287408
F0.7740902862066005
F0.035136569149288754
F0.4271144446821835
F0.7268022727293432
F0.752651484407499
F0.9278386579498344
F0.9461364092296173
F0.14151629136903243
F0.9072627518934958
F0.6987131392606318
F0.8239240315624589
F0.04188143228420915
F0.9567563811617523
F0.15466088802936684
F0.5565322291600543
F0.17438526154629475
F0.20305583783749137
F0.22187588713125495
tp70
a(F0.5695203225439858
F0.1478602426967276
F0.47301481630542175
F0.9737227709441564
F0.5383577536174824
F0.26386558220264933
F0.6873753372140253
F0.31637785861510603
F0.22940261189840527
F0.9095506399664023
F0.38866700337675286
F0.6259083696417485
F0.5321617932908017
F0.365207997813206
F0.234088764389613
F0.2128046518732285
F0.051632465997134114
F0.1343926906295605
F0.013177742566551465
F0.14695243406578473
tp71
a(F0.4256354252975578
F0.11126638019981017
F0.2594887342747695
F0.7551107413752829
F0.8309458430953631
F0.6767041236996153
F0.5512644865543963
F0.6385422307659337
F0.18249978187135285
F0.10188466960359488
F0.9984468007434281
F0.3234707851099643
F0.0720198148382779
F0.06806209678025943
F0.21943927205910552
F0.2460652755392877
F0.5166212193846398
F0.4854750259455307
F0.2950374992270244
F0.16220538216924585
tp72
a(F0.41903903166914447
F0.8112153744974473
F0.9402344743086323
F0.11601714261323237
F0.013936280172386017
F0.5124631249386247
F0.6706907366200354
F0.7416678337313671
F0.7355940826869283
F0.48401171583908587
F0.7897555057830948
F0.0610270047721192
F0.6561375263967891
F0.7957025583107513
F0.08301119764675757
F0.5088856057639737
F0.26640919340962743
F0.7824690326071975
F0.6313776300888274
F0.08137845269831989
tp73
a(F0.40936505259398404
F0.23451117968384427
F0.8516694347036935
F0.6425948813992531
F0.07248079304822641
F0.06190313158161442
F0.3008842011890912
F0.07503390819519051
F0.9244430027648436
F0.969488116647395
F0.6507515063920786
F0.7303005331244831
F0.21280988640064447
F0.5792843260188297
F0.34094557267264813
F0.40043831580654377
F0.0008965202286002061
F0.44695531141216616
F0.12944080273556902
F0.5484146457294464
tp74
a(F0.5918260576145665
F0.12081397453193832
F0.4083183434357046
F0.3962501076900322
F0.5175908391510027
F0.4832771577393855
F0.04826444281947795
F0.8986873662521173
F0.4564153451454387
F0.892881095586917
F0.1880053270732419
F0.5275902935931255
F0.42513065726417154
F0.785351794527496
F0.004157402278293754
F0.7062153912198348
F0.7389208874499503
F0.08192490745429049
F0.6555091146374398
F0.3010166780831397
tp75
a(F0.5932800650561464
F0.41216226336890494
F0.16753122713882718
F0.07883424430476094
F0.09559509033864455
F0.656538603118674
F0.7681020296004057
F0.4660066017775262
F0.25649653896267843
F0.9282592434209993
F0.36837894539337224
F0.09744011492815474
F0.15830276514000363
F0.20646169190913088
F0.7108866491833342
F0.5366908211756771
F0.6584223886444299
F0.6397484009963408
F0.15034747728933884
F0.1762410767016067
tp76
a(F0.14491303973151803
F0.9008181179574611
F0.5276768075574993
F0.8240494739655371
F0.03150438494334251
F0.07396764884373841
F0.46894431457454566
F0.5912936631023391
F0.5012893972626041
F0.1407253849970046
F0.5052885112297069
F0.08577984993156429
F0.7755721680799578
F0.8686719192236355
F0.6027087070587112
F0.9215348489656122
F0.4163457775621674
F0.9100672451857651
F0.024021399197239113
F0.902747228249682
tp77
a(F0.8490289136554828
F0.00797289656089728
F0.34478769662966513
F0.057551150757997105
F0.5289006176070364
F0.5927170101262987
F0.15312478805728502
F0.9733071975470537
F0.09715336505960537
F0.2600873487927542
F0.5950517753234194
F0.0009556326256735526
F0.059532830443378204
F0.3199777870149322
F0.4633755505332606
F0.5821009903468314
F0.2686698533464581
F0.4021751716057318
F0.7089307179306189
F0.2536960391613351
tp78
a(F0.10070916271188413
F0.8874729270853086
F0.45072960329607203
F0.38154327487250717
F0.05089752279771065
F0.2414203377603702
F0.4474698477216641
F0.9772743477394411
F0.7257954219652504
F0.24346124583237216
F0.9563298163657359
F0.8353598288776708
F0.7336805090388512
F0.5609838754108288
F0.689085557102849
F0.39617789649925883
F0.7982089927882512
F0.5096724315357267
F0.26327127210839274
F0.5285310153219653
tp79
a(F0.3093546344295124
F0.13021820654379535
F0.9798766466242291
F0.2609759940934997
F0.14524893408886663
F0.7509578670088084
F0.6788830612055171
F0.6195016371558904
F0.49747609887432886
F0.4999714998144169
F0.2035278983271782
F0.34916872244138353
F0.2456227867463895
F0.17919663300642075
F0.6674794062373284
F0.7818475811718544
F0.8075424707430752
F0.6570671908624727
F0.44173925318198726
F0.2588352197335675
tp80
a(F0.9276490007713186
F0.3298131763080301
F0.336694915345887
F0.9926359805607433
F0.28987051169886535
F0.912705005245243
F0.8776350775204963
F0.8121311626937008
F0.6990639288639929
F0.2334118734631967
F0.44191746296240286
F0.5907467152826403
F0.5850503100372514
F0.45379355404275157
F0.025121358410963857
F0.7999691619964469
F0.07586171380050755
F0.2325764475526163
F0.8181000617166493
F0.7036979592633368
tp81
a(F0.48642603093236036
F0.17770171751302644
F0.9306371383015493
F0.5367672796920203
F0.044041949851147955
F0.9798053700520739
F0.6847431201806793
F0.861759685117588
F0.3509305828731071
F0.8836882111948774
F0.026731390707788405
F0.5072306482968134
F0.8089680556198479
F0.22751842838774294
F0.5595756954803475
F0.032162445093034675
F0.258019419958484
F0.4950044517360189
F0.26125052058403464
F0.8020574071535141
tp82
a(F0.9463826480686282
F0.38596377280523086
F0.8227620112408334
F0.2473335071948609
F0.46183385223873163
F0.27375321058133395
F0.7226804783987536
F0.29179210368310327
F0.23864707020708342
F0.012990942725950139
F0.7851163899516767
F0.431631731778259
F0.44695250444640233
F0.3366963268179247
F0.3184671187575998
F0.759580941901316
F0.18509704579848618
F0.7956861180608751
F0.6233485832726565
F0.5021105021696548
tp83
a(F0.9590069415758233
F0.6045502469487174
F0.12304378779285141
F0.9776560070573737
F0.8215830126819382
F0.30475625134881434
F0.5809682593948245
F0.8359474050385779
F0.02243310180369995
F0.009692098484929246
F0.27392388824355696
F0.8269962213577314
F0.7574135139902012
F0.32128249445522883
F0.9639901311010324
F0.7944777754560052
F0.3097427741723041
F0.8843616566532946
F0.4544293099633221
F0.49993287283288046
tp84
a(F0.05316418835339032
F0.8191626160211309
F0.2696600653102559
F0.4974152358079327
F0.8435537188750603
F0.11760044841814332
F0.8280199025521493
F0.2604022699492422
F0.13510376781394373
F0.15506682816492123
F0.030862067783144154
F0.3392821196882857
F0.4640641645499448
F0.5661510653247613
F0.6727174363551881
F0.3405578168473067
F0.1897705982211252
F0.9670586880891353
F0.5989156716873884
F0.9704308770618179
tp85
a(F0.5379661503918722
F0.7678161074026643
F0.6249418038497052
F0.9551615378807526
F0.8796880659783688
F0.9306281428764418
F0.6187571255808019
F0.824341095158613
F0.6371828162864568
F0.7296603123613632
F0.8847165913188111
F0.73286030383367
F0.23940544674808517
F0.0973058985979055
F0.09993591353496223
F0.5113643584000453
F0.3577133339823567
F0.7371006206498124
F0.8737468084904394
F0.38015176067785705
tp86
a(F0.8721975423186231
F0.5531087929604576
F0.6184044658574486
F0.7937133529702934
F0.51530057494337
F0.3031218415747242
F0.1746865772440831
F0.9465180208408371
F0.09301630630136071
F0.9815389121720708
F0.4472764984346944
F0.9601417424552741
F0.6704794076929752
F0.09211270347035583
F0.6605540395580636
F0.2311800888439408
F0.8265060034636662
F0.021391156799319022
F0.14614921759170174
F0.9840796833475166
tp87
a(F0.37255511922969853
F0.2105781782713808
F0.5515988605253116
F0.9685308443127049
F0.8125546400457752
F0.9595533763336112
F0.8109025089591596
F0.012654695626589607
F0.6152766423227646
F0.8228220695728768
F0.9890582270984947
F0.38892608328734635
F0.2021784435349545
F0.47716479346256147
F0.24613460846933122
F0.7458812333213073
F0.955760646414753
F0.31520974716535755
F0.7556664742377663
F0.06014110153784202
tp88
a(F0.9949721082445485
F0.9760114912333726
F0.5914192405768504
F0.056166675044098224
F0.12656154199210579
F0.7487320162347698
F0.8276165054104262
F0.31149355049150307
F0.42099843608229004
F0.3660969157355999
F0.6652385418252467
F0.03056029948410488
F0.7814959721743967
F0.5590799331865339
F0.9210281125306081
F0.014136116987533143
F0.810274734974939
F0.7723861750559553
F0.5099683681990722
F0.1066052402012726
tp89
a(F0.5216124822441072
F0.8968093879813731
F0.0595837009666601
F0.44025011658309865
F0.9400118169585717
F0.8985798776997844
F0.5203869117625219
F0.036603004555107455
F0.0656292654110403
F0.94308188013065
F0.5232588443320564
F0.8464114346023889
F0.3073764127278562
F0.44970391416002187
F0.09925177911855487
F0.7029410026797837
F0.7473909584232357
F0.19938223094330687
F0.04254544502638591
F0.6213207103273366
tp90
a(F0.7579158904983354
F0.6948654857541684
F0.6587173206839638
F0.8460758063843966
F0.30153216062687094
F0.910117982968609
F0.12034660350626769
F0.33304986747394705
F0.9246112576119603
F0.9921324993615138
F0.6340756610810881
F0.30626167013360417
F0.2620384488664189
F0.09160399861094726
F0.6301417522193178
F0.042355406409654406
F0.21861932071725043
F0.9976855189011724
F0.052539281124676096
F0.0347905143048014
tp91
a(F0.9160177711595924
F0.05998502680684337
F0.9115695799430404
F0.2832285341467584
F0.6764527654628598
F0.3135945564203444
F0.7086739280920223
F0.6233784749061416
F0.2325030660058679
F0.6515296973742444
F0.5971157061955601
F0.3585083892625106
F0.7258023164797798
F0.8282225951810197
F0.2806198205552686
F0.5673483236330376
F0.5285577870327745
F0.2895835034683102
F0.34922737435142437
F0.4719229145453634
tp92
a(F0.1949772215078137
F0.534060878600887
F0.5617066348976262
F0.38444111978852846
F0.18925304278179678
F0.28639986859070665
F0.9344515896155607
F0.8571166026369365
F0.09371088845549436
F0.24988516758263624
F0.49361275280611494
F0.5499179298335245
F0.4848697450474224
F0.7427429514202873
F0.10450328296145017
F0.46938346347564064
F0.8199162798926514
F0.150821194134095
F0.4276246470527759
F0.2699354424343805
tp93
a(F0.6535892825759565
F0.006611058746559206
F0.44903255575566614
F0.6124399178251333
F0.6702146236469168
F0.22363554344655456
F0.37950585568908834
F0.5311270710720414
F0.8217062366169543
F0.41670734576377344
F0.4761287648692214
F0.4220148605749139
F0.7831252155008742
F0.827486972482802
F0.250521668284842
F0.003546307211728994
F0.5303335468656128
F0.9411895733982334
F0.0023183023812122228
F0.734823358909797
tp94
a(F0.174830346965554
F0.6265435401436668
F0.8770310743823805
F0.11607066256922027
F0.39293393814249766
F0.4261860784078503
F0.8071966795779014
F0.1756101449356069
F0.4683754174564879
F0.7822266132320936
F0.9891866866145774
F0.0938974741996852
F0.6056420637067392
F0.35374602769765473
F0.840432149692837
F0.5002953631968848
F0.23310756448990533
F0.8782607376213682
F0.783610768659081
F0.2746280726662138
tp95
a(F0.4731681945434456
F0.7994487003792786
F0.7333430268896476
F0.06631118739574293
F0.21608958248424226
F0.21512311401827444
F0.5447330146068804
F0.4237700238884192
F0.754811676603312
F0.6156723048705443
F0.10880755279457666
F0.40587667473220623
F0.9843253592343534
F0.783487539947168
F0.12218905985946793
F0.385257260435646
F0.7702287603078785
F0.5612553253641485
F0.5363256542928937
F0.17092400972725907
tp96
a(F0.8377641510119817
F0.16028862372295427
F0.370766674641696
F0.6795703376053134
F0.24927066409240506
F0.4968850892699438
F0.7213257355396057
F0.2227865462930776
F0.6576243081094307
F0.9826361928812043
F0.6773347987271069
F0.6696299501719353
F0.6186635123312794
F0.9444119805944476
F0.7985630131855285
F0.4174581437848044
F0.4602233497732947
F0.02541419671822287
F0.7332812136073315
F0.49220963299527243
tp97
a(F0.6219796475127638
F0.8130949211430049
F0.9463571043674001
F0.2606156680717171
F0.5757674275328667
F0.960824310159418
F0.2422432359312099
F0.777436869234032
F0.1089113081851707
F0.48069917908375115
F0.23782907481716797
F0.6239340786758036
F0.11901402885366863
F0.1989091721698708
F0.9252750068437204
F0.9523207061827227
F0.6400783391362528
F0.9200463079366559
F0.0679707736263756
F0.823541451236348
tp98
a(F0.18458977986814218
F0.40882465130473533
F0.019337986001830454
F0.1686061041988085
F0.24002813430656744
F0.9122377803330589
F0.47178399821375927
F0.9550720887301557
F0.6507584208897281
F0.4336565631654663
F0.8996563333986228
F0.8919819388939649
F0.5432291192040853
F0.411809491529755
F0.6962772813018276
F0.7392647964709445
F0.4342256397017574
F0.812656370491495
F0.44994731440625
F0.13656274959714387
tp99
a(F0.6970887795508887
F0.22673375227560233
F0.7577700414768267
F0.8517525767697961
F0.17257842126285272
F0.2735160395760614
F0.9206485322365722
F0.5505924591723267
F0.1287163493020198
F0.46554239281892795
F0.7191168688919612
F0.9081614740941067
F0.04005202632776117
F0.5607255639796805
F0.6275165956261026
F0.460844808847931
F0.9935277581688462
F0.8439814321742263
F0.28285867772223783
F0.03876051105408007
tp100
a(F0.45625097499580636
F0.2168842885968073
F0.5163409435101071
F0.03782575551814349
F0.12125230193395398
F0.5352613877160006
F0.9123393872795124
F0.6286578092421431
F0.848884311547912
F0.5506705311260435
F0.9897126930179835
F0.2845150300848931
F0.655894729448267
F0.3682336376941885
F0.08024972695200405
F0.7587756361251186
F0.5348016489080606
F0.05073257976337864
F0.9808229902364872
F0.18352103087843907
tp101
a(F0.4498690744586533
F0.9118568525746843
F0.30446138557624425
F0.5951399506034308
F0.9924843145016707
F0.8026136359614864
F0.5285445289471904
F0.6854492164834248
F0.609701871110803
F0.7891519342868175
F0.07811166329981545
F0.44254557880318546
F0.9522774215606631
F0.9924362397371789
F0.368242887284955
F0.37277273367324726
F0.10422056725585782
F0.8964721306597275
F0.7104703684747549
F0.03723022528390163
tp102
a(F0.49665267673851865
F0.27033587586656427
F0.595468132854123
F0.2419852538584799
F0.4624062206121181
F0.5147512388685856
F0.17340399350145574
F0.1793121172093124
F0.9353857957907918
F0.213773820502706
F0.8132142740747195
F0.9566071269457087
F0.5471800541901182
F0.6719424474104762
F0.7883940877592454
F0.5588662750331241
F0.38435792905908794
F0.9208043952869558
F0.7200557095338503
F0.06886436674058771
tp103
a(F0.36702119498904395
F0.9587643928289542
F0.32277082370110177
F0.6109717998761633
F0.4083232746325969
F0.8042752712674797
F0.6660902119724585
F0.8308155064803416
F0.6467200986680627
F0.8797653784817568
F0.9769077138277079
F0.42003699421143514
F0.9212768208130068
F0.16266802575831685
F0.38667997382247166
F0.364135365180541
F0.5742386813142863
F0.2966915696254857
F0.6990830871721545
F0.4353635548465067
tp104
a(F0.916744966174546
F0.13377445945431787
F0.31054173457955114
F0.6765403081410487
F0.6420862801603351
F0.07552764615116869
F0.7013126657181129
F0.4357094154921618
F0.9670493336591098
F0.2673733215470737
F0.7255922244737797
F0.44164334074896006
F0.4621380790923434
F0.0714254875294239
F0.34316114557077537
F0.9740057822270162
F0.684843183958276
F0.8558447027047509
F0.2602371237965023
F0.8180502026742705
tp105
a(F0.06407891837344659
F0.031252475251745904
F0.9982775868952686
F0.9944265939830021
F0.16529932213636545
F0.2825022573254742
F0.5266535863141575
F0.876676229588632
F0.8553281294766252
F0.596611928212684
F0.7759119270873963
F0.2998724524281725
F0.9937461417100995
F0.5492391987282726
F0.6858940334433493
F0.1159902303134791
F0.09696901728504725
F0.8983730976953246
F0.7964358651229252
F0.5582223619935308
tp106
a(F0.6779948412033018
F0.08979087949273612
F0.7903654682863682
F0.37587916764096485
F0.9855163669692807
F0.7453008628488721
F0.8464476869163475
F0.5142369938768147
F0.6738347192503975
F0.9536214199254308
F0.49312949428432185
F0.8341349759932158
F0.7013358108095299
F0.6987316232503814
F0.7991076323805352
F0.7768791792393672
F0.08487357379066862
F0.5182727811510549
F0.12417709792128628
F0.30450448700189736
tp107
a(F0.7468863221234261
F0.51706365822222
F0.7749478709138269
F0.5064029502852471
F0.526208272887222
F0.5098365461174243
F0.7351355309268235
F0.8894087466665582
F0.9893078017321436
F0.2628011683958529
F0.49605970363860263
F0.8020555575859993
F0.19145200911392757
F0.6975133371919808
F0.18161252775211845
F0.10387580416082454
F0.7822028483191233
F0.5375755013868295
F0.5799506309533364
F0.3610272934642784
tp108
a(F0.5890985422611935
F0.9930797350189517
F0.07916636278446332
F0.6245454009830502
F0.9125035436601565
F0.9608148962978317
F0.6871631282669495
F0.804335129387684
F0.43874018684512717
F0.07849319312749248
F0.41935245682150535
F0.8728951705478926
F0.943850844058487
F0.6813048083373168
F0.11921002688661086
F0.5875899846024055
F0.6928470124244756
F0.7029245469731131
F0.5144246410966586
F0.8549375419283032
tp109
a(F0.34252103231608544
F0.9368846817382577
F0.9451580638361465
F0.5179831232031131
F0.2979070217253299
F0.17414532700967977
F0.5023343726126906
F0.8425119588102687
F0.9530663621841771
F0.8775126571418642
F0.2540829117423704
F0.5683425636259621
F0.9308338017289236
F0.8484040468468468
F0.2946581491355439
F0.3969644723282001
F0.5601402139631487
F0.9266934871325331
F0.8650218751580566
F0.3926480628486617
tp110
a(F0.5122324369577202
F0.8271153835422136
F0.7716911582949805
F0.18518394896215495
F0.14108805446754702
F0.1229584402801196
F0.04505366322304638
F0.8002204197018289
F0.21729006285001318
F0.6877465470624118
F0.5925912958137557
F0.35932237071042594
F0.3130140432490307
F0.3321808536018418
F0.6714898474937117
F0.8811022930275976
F0.8697192375729357
F0.2344310213197328
F0.20414535490976005
F0.4698407458090256
tp111
a(F0.15258131956218957
F0.23090201263445975
F0.9056082082799431
F0.7573320109962344
F0.33314728075210787
F0.577348991496696
F0.9888649163984994
F0.8039074947930159
F0.6492531549627519
F0.9977628135884178
F0.08586174384987688
F0.6304114235179676
F0.7740113377505263
F0.2872098986672581
F0.14276402021008228
F0.6421197589380414
F0.5818639014103867
F0.17584452527103722
F0.7643830591186925
F0.3109617681692226
tp112
a(F0.7370069852495088
F0.4534885569310074
F0.5358232806764062
F0.5087980428491362
F0.6221456388573047
F0.1889408113190616
F0.38318449683370126
F0.07223530319735771
F0.1122099903092334
F0.4829228429219393
F0.6767362082810888
F0.5446807247764295
F0.28310696773449284
F0.8458953296417149
F0.5618931224998026
F0.008974375785657518
F0.5105945065329957
F0.016230562413128702
F0.5461375825231877
F0.2569458172680308
tp113
a(F0.6276619436042532
F0.7507421522851077
F0.7260537680692873
F0.49452170380116844
F0.5211671178432087
F0.3203696365376074
F0.6308165270399058
F0.21402649683662822
F0.3833940119341984
F0.19414867991926443
F0.20833582025251018
F0.29713099257027087
F0.4356537640980379
F0.4888083292877632
F0.6080414109620202
F0.17978215796165198
F0.29863770036569726
F0.3612445824171253
F0.1498653790038792
F0.14120719157213135
tp114
a(F0.8940568404498805
F0.9081753518393995
F0.0019794242232719084
F0.4012504008621878
F0.5566082116880391
F0.23859562631205433
F0.13128968950867725
F0.48239703168608605
F0.16905432691292555
F0.19939256582488685
F0.8235687534100002
F0.8500796199968089
F0.013571461246683403
F0.9899479462067363
F0.4812227590988415
F0.9592995052466886
F0.6113434010943503
F0.1629129064042718
F0.38091690187376104
F0.4879276934422775
tp115
a(F0.7419636981977107
F0.6556218655184886
F0.3131187108179071
F0.4518590205338382
F0.690038538587393
F0.6067385307887501
F0.6183731688455792
F0.2632748484620917
F0.5297818809935955
F0.5987312481470263
F0.46344616424624674
F0.5889306521167491
F0.42665422899382943
F0.49876847594660034
F0.854197600451075
F0.3699768762758666
F0.7877882307378784
F0.9232699009778805
F0.4428037307415188
F0.6602176397164132
tp116
a(F0.4473023741680916
F0.1250257088675676
F0.3163633359828816
F0.5259921394666871
F0.9471547408347689
F0.0945325745033736
F0.5232083103670677
F0.9428009380452236
F0.7289217161518791
F0.9560831617142014
F0.0720723369134545
F0.5111769580902754
F0.8357269909011884
F0.08094647124919174
F0.7341033538641315
F0.25146429899608014
F0.49242060724246606
F0.7062445095564456
F0.3953804397382139
F0.9749912869412504
tp117
a(F0.8391876901328635
F0.9392380106048145
F0.1450121185113059
F0.4037290621285169
F0.7887925140981012
F0.04237774588904164
F0.9636673607196524
F0.3571507722792281
F0.2846522691074769
F0.9780990110020812
F0.8282848906157253
F0.4743696112997374
F0.1359107581362886
F0.0027648261052748424
F0.6869626565086357
F0.30532329089564625
F0.49329013736698835
F0.3632677996550615
F0.5591676579508649
F0.47353372131229665
tp118
a(F0.671708420187647
F0.6261971744303745
F0.5505873299698194
F0.38720190243840924
F0.6728344665913574
F0.14792364848873862
F0.44622180216578444
F0.3837146317088356
F0.3058949807180572
F0.4204599738677314
F0.5348916059158891
F0.7115084308784244
F0.2941977045579707
F0.43522658706969664
F0.20097370771455392
F0.8054170136578481
F0.81322799655157
F0.072668339026699
F0.19074318682702507
F0.12238172868948904
tp119
a(F0.6677902952396687
F0.1999585848119818
F0.7456197304143798
F0.29820508853676775
F0.5726272303124228
F0.21839065139971392
F0.33498003826042255
F0.7433001838212894
F0.5948850011471758
F0.9767777801678692
F0.8281596810580023
F0.7155325150786128
F0.8527751180484587
F0.4239085248465767
F0.3860741478622334
F0.06749290828309773
F0.7531210474630549
F0.7935783505177529
F0.5203704492813189
F0.9630980916136576
tp120
a(F0.8217973725798339
F0.05697039395450687
F0.847503965767678
F0.7823273978912207
F0.15096446982812073
F0.8829580555343263
F0.9790755374571581
F0.5565923993777686
F0.4522693870349531
F0.7390930150745005
F0.526089150997826
F0.5819165366081019
F0.1736774641648685
F0.5596941167447336
F0.11922178020082164
F0.12370670733804512
F0.7674858420035645
F0.631440540755218
F0.3935288015378875
F0.12034596407469056
tp121
a(F0.583103124747506
F0.33693784113942016
F0.21910340916762505
F0.7782401315114224
F0.44985351814506225
F0.7356399817067345
F0.8700390792641797
F0.6845346072569161
F0.49335520010537715
F0.7504345256907701
F0.6658597044088542
F0.4274244934440202
F0.2797796654469239
F0.13015701951762504
F0.13311192700401397
F0.6700249228775336
F0.7534007981151309
F0.1325694798398085
F0.9667414233254153
F0.3997513314786033
tp122
a(F0.8681211705581444
F0.43625348255485763
F0.4476612751457827
F0.6546528674144131
F0.7267668249071195
F0.2270439191626027
F0.7578267751357872
F0.6023446062855088
F0.3238317340377702
F0.9996998655301678
F0.013088100096009914
F0.8591350957851022
F0.9798560770072723
F0.38260714229029613
F0.8504231142040215
F0.3754273912970223
F0.8251531729189798
F0.18133939345742722
F0.7087000174230232
F0.6675465433253612
tp123
a(F0.2642092141589908
F0.3138756424404425
F0.4699340910827554
F0.8645575882524197
F0.9335406093001807
F0.5626574650586686
F0.6835506343569802
F0.9715601525190576
F0.7185807972246853
F0.1772593416780236
F0.4210116580385005
F0.2503713503604813
F0.10836827997281462
F0.9484255403452683
F0.8183347644153764
F0.8856713388649071
F0.471694096911055
F0.5255516412723779
F0.0846673677028642
F0.8097508747923116
tp124
a(F0.39074670446624316
F0.3390262006883681
F0.3125535530603334
F0.583149690112273
F0.22645646709793688
F0.8215320922881116
F0.2511139425855706
F0.5583107754150044
F0.2729209822580232
F0.2103312358758429
F0.6623387330982791
F0.8447417108474734
F0.9671414644893535
F0.8381318350086346
F0.008023546619576383
F0.6291008188261008
F0.7092032216817082
F0.6806859433569156
F0.38985066802650403
F0.7790868800136709
tp125
a(F0.1468121832989614
F0.5292381137321286
F0.9678227250699525
F0.5020730009569303
F0.8401675333868872
F0.8935555434260651
F0.16217200121556619
F0.8743271612419132
F0.8385961627927999
F0.9453222623642076
F0.7299092155357022
F0.022925501847527396
F0.6479145221200561
F0.32738289475071614
F0.7635780576537822
F0.06366325332202394
F0.6257286210820464
F0.558635154260401
F0.1938945235279005
F0.5258492030373817
tp126
a(F0.3742797569881937
F0.9965939114406374
F0.05951931106517072
F0.11654837481919067
F0.8697928691206335
F0.07517746020570293
F0.5838561917733489
F0.37257599017047704
F0.009029887257610336
F0.0036713455994091815
F0.9929210784924779
F0.004339801455120584
F0.28816880966161307
F0.4253192604576249
F0.2666794408076306
F0.7322150248462829
F0.5226937924235487
F0.5712368919048482
F0.8530649696775591
F0.5468846769034957
tp127
a(F0.691457344118971
F0.6959512463433037
F0.09866850568697638
F0.015833426331104405
F0.3182656264202173
F0.8364215593994161
F0.11065120064474454
F0.015656903076071038
F0.07094746950725561
F0.2693561977800518
F0.2918129165188188
F0.06856636207992106
F0.6832088469989916
F0.44965307413758815
F0.8243194881571201
F0.890989781727259
F0.9867887629746028
F0.9414072998492333
F0.5638911065118102
F0.16872895232498109
tp128
a(F0.7977437848703689
F0.11059971969261817
F0.4427346899639196
F0.9841109774078403
F0.7705844607256838
F0.19638892070904623
F0.489583849827367
F0.6663158986918469
F0.7294929879141688
F0.1337991281155
F0.4570199236457424
F0.7064335601479631
F0.6932013052056466
F0.4514754591557826
F0.8874499635859607
F0.6286791628234865
F0.7550304874086003
F0.6005475732812777
F0.03873897797802339
F0.8257070331537175
tp129
a(F0.354819657726654
F0.4295819115923387
F0.7608186545658124
F0.8646682268588345
F0.9603716265927816
F0.16319775976850082
F0.7795679822689175
F0.58703093926913
F0.4202902497154648
F0.5937271057705809
F0.905996342128493
F0.8003567563151373
F0.5928228807736791
F0.8055794287522935
F0.32156826562493335
F0.15079376219496787
F0.6379803599762762
F0.2071596700910474
F0.2119594282309647
F0.26325203591542856
tp130
a(F0.09184257661983175
F0.2453409973811974
F0.6301083455847166
F0.8471613938939584
F0.2476331071649608
F0.5784092967972938
F0.5017258993943537
F0.8815688486703964
F0.24295099436473444
F0.36776522538276823
F0.9386034808023684
F0.4224947934149068
F0.5477620948447247
F0.640510702083901
F0.8480886425241397
F0.08642516954507018
F0.8564848220094909
F0.7289597636744681
F0.9474725024762588
F0.6463697544112605
tp131
a(F0.6040135206750458
F0.7022023043225654
F0.5324927787135262
F0.5418549810163611
F0.9559134813535392
F0.11641334092918587
F0.9719257987099352
F0.3780182820258031
F0.4524557362266739
F0.9584573197267086
F0.37974161027552933
F0.3331454562997429
F0.8091826942186906
F0.0934652821114973
F0.8102861515111183
F0.9570024723857747
F0.293120544315687
F0.5462926995287245
F0.014769705488702711
F0.2751789179421019
tp132
a(F0.8442694573015803
F0.9523539049259138
F0.4455824754252803
F0.2673873739115258
F0.2357134712804404
F0.22868251860820887
F0.044492814123731295
F0.5093866026022023
F0.8028148476914533
F0.4541448423941097
F0.9757338009826114
F0.7992826611405666
F0.856302522291548
F0.9012777182893439
F0.4197510209358606
F0.8566276741682275
F0.34237174868486586
F0.6237357076038936
F0.6555829886651657
F0.16095307243186951
tp133
a(F0.6170877425928905
F0.1947838184215568
F0.6976408355359057
F0.19158377656098413
F0.26723717721080775
F0.8002714818589381
F0.037288657555446525
F0.16869832584256694
F0.6083721552134338
F0.37487709686689896
F0.08522491335322413
F0.2906968017643191
F0.7178864735504387
F0.4055737006713336
F0.6673001270158435
F0.05799257127217283
F0.6261800184672859
F0.9877230688700546
F0.4473556999219629
F0.5562177067783312
tp134
a(F0.3917640643598084
F0.4643401933242344
F0.6950081869086522
F0.042134708478445915
F0.43650481951546993
F0.9284372740530423
F0.4402224977430129
F0.08066409245714834
F0.9005567383675784
F0.988026071981264
F0.1904468635654777
F0.09673168595464843
F0.8349342509216412
F0.6423182540991075
F0.4874077118021607
F0.9598785538512947
F0.9841038967109189
F0.8134079798330206
F0.44145674347113406
F0.20483893047455348
tp135
a(F0.29127283718977337
F0.81192680064565
F0.31720045304647937
F0.787727694429278
F0.7943065622855134
F0.41855878259960433
F0.7443619490897649
F0.2815880221533942
F0.5503973743890962
F0.11208046032021157
F0.3423808965353823
F0.9628098900126169
F0.8493389289665239
F0.5707294492254322
F0.5186466000214496
F0.5040927661213299
F0.7728729377704708
F0.9094236782070786
F0.4095818613349691
F0.7477738958740692
tp136
a(F0.1283236060072771
F0.45023975532214766
F0.07026880432304317
F0.3426265915776088
F0.34969482991871503
F0.21474612279279193
F0.05305598015143964
F0.16430804145751932
F0.858305473351229
F0.7761419541110149
F0.728294527942412
F0.15541837255003133
F0.7279845121312087
F0.29296050609843105
F0.9208014269552361
F0.3579128396045653
F0.163564174049585
F0.5167414324806789
F0.1372860796526243
F0.7259946261902541
tp137
a(F0.013247114852868558
F0.7781169882737555
F0.9433170772041218
F0.7172475772921484
F0.08484688983994648
F0.07730052829018796
F0.14607444609153275
F0.570133615805112
F0.9851387243979014
F0.8082111191853268
F0.7103083121629098
F0.17670106160010934
F0.5877024107758285
F0.35735093504156357
F0.4303974067822529
F0.6435999632388054
F0.6561215211918076
F0.4457209388646852
F0.5520954466922249
F0.4259357939628341
tp138
a(F0.5206129773215987
F0.5249877213682864
F0.8276979720043719
F0.48642182059178807
F0.3847573810855348
F0.2224797149718667
F0.12547671850959163
F0.6788749490295944
F0.9205073625312883
F0.6734011318560998
F0.7938338616500251
F0.575173248397522
F0.8055398662271734
F0.9848317438504696
F0.8113349413556992
F0.20334582371078913
F0.9067067250294649
F0.6680817445217863
F0.946741257286308
F0.3998401497268308
tp139
a(F0.04026684291129301
F0.18244554146727898
F0.8587719750817869
F0.6790278336073605
F0.8915083025126255
F0.7222156623660265
F0.02409513940081698
F0.21992099140545607
F0.48455802696319106
F0.4408282078610065
F0.01807328364870142
F0.07102145519225311
F0.26616641226903226
F0.13751805746590662
F0.5119499636955147
F0.5474332027393075
F0.4036332297523838
F0.6264197222898569
F0.04025779034586152
F0.8794732315106429
tp140
a(F0.9549814250212995
F0.23254860608053873
F0.2855684328897353
F0.8469348068561267
F0.2434429860751569
F0.014041502005651019
F0.20788849071293314
F0.8334156927657321
F0.3823589616268872
F0.7810746390998797
F0.35385937534985457
F0.5375360083902487
F0.672362910686392
F0.62650330316339
F0.008576691522770408
F0.4475993388494106
F0.7135812923291612
F0.04793495044607432
F0.7041362669317173
F0.22419640102528082
tp141
a(F0.4073955191641139
F0.46722867284879444
F0.7578717358431273
F0.13528209529124546
F0.7859043377186201
F0.9368188471456391
F0.15749018686741345
F0.20845564526276206
F0.46256373114870475
F0.030289902835836435
F0.33643463170040033
F0.3234388643561631
F0.43850217566649263
F0.3121811852689532
F0.6022646656055891
F0.7681217911898331
F0.4516670020783754
F0.7340680118648678
F0.46609804385658904
F0.5237198827577222
tp142
a(F0.473178657810831
F0.14996836593659169
F0.4035115373688041
F0.6120524670862343
F0.36661057135672626
F0.8770680551167979
F0.7866994118762068
F0.8423333136029816
F0.09507518736069398
F0.6692843989107069
F0.5491904049266504
F0.30918144627967326
F0.9433857425480151
F0.34503383803768994
F0.9314077681439448
F0.28987754228653484
F0.7951721718733173
F0.09611521564313996
F0.8119021950021885
F0.12485082735679043
tp143
a(F0.790875178613476
F0.6794664774682059
F0.2251401895405677
F0.5796002569754048
F0.15742034553861184
F0.9218392555574698
F0.11533779492743979
F0.6631756987991565
F0.18198662629885032
F0.340958253737463
F0.25791045548758296
F0.2938530869178356
F0.1880453155031625
F0.044909134426158404
F0.596893730577437
F0.9664252966500115
F0.707219417071611
F0.8024394192961665
F0.0115544798427053
F0.8402249476056398
tp144
a(F0.24941637594874067
F0.7051099843944554
F0.8518648030124392
F0.5573355799495575
F0.34285692920491495
F0.40540452328416865
F0.9647051978635113
F0.9134025175873388
F0.6921084265290278
F0.6674404236259951
F0.8349083589633218
F0.23724133755263854
F0.26417077220350293
F0.5195307993567975
F0.4890220651221392
F0.860249053216784
F0.08948043390587246
F0.9168270433972249
F0.37019673926888186
F0.8076789167533297
tp145
a(F0.40434900351842096
F0.9467962587219276
F0.4974876510608437
F0.8773259488929278
F0.09411047318500154
F0.15198610220662012
F0.8285982414064389
F0.7925415686091455
F0.8894425908935276
F0.8447842118848445
F0.36409247454835203
F0.9359288552301527
F0.6771660820061749
F0.6802728359208722
F0.11567975393531471
F0.029454027517019754
F0.8049882197996848
F0.8686564397163794
F0.6781341633764078
F0.44255487595124654
tp146
a(F0.6298742380032155
F0.8019113276315516
F0.7642001527091414
F0.7885759411547435
F0.5857923846919244
F0.8677836124427245
F0.8963838160638309
F0.2857666151669537
F0.9379063564000076
F0.42371773080567543
F0.23715730438834226
F0.30653667686597386
F0.44614174539833806
F0.1066300516149774
F0.6374908027848526
F0.6192142938886682
F0.8502408387381235
F0.21759659572399515
F0.9616588519417939
F0.7128096959286395
tp147
a(F0.6059200836435794
F0.2537190262610397
F0.6905993375642635
F0.22262748871632354
F0.35008225364960155
F0.08040530747420549
F0.28051799138595623
F0.9405984789571847
F0.8977524203358294
F0.7305188214780275
F0.7209048855213456
F0.5827752887524528
F0.8971740463493718
F0.6696174870735806
F0.8500551820467774
F0.20619011846326207
F0.9683391742489436
F0.6673869420566594
F0.19474374410920214
F0.9122611298148431
tp148
a(F0.8422348651549707
F0.862324280359758
F0.41788755640638
F0.3736439624305077
F0.33588830269222847
F0.700970788112738
F0.1880841209440779
F0.025934761492132252
F0.7090214673095583
F0.9016857322791947
F0.8333489980194183
F0.9720649553807822
F0.9383412905346473
F0.26496186459431736
F0.7592193082709028
F0.9283124850044747
F0.9769597276424429
F0.7142600072474434
F0.9950704955649126
F0.9179276452740194
tp149
a(F0.6601398201405508
F0.5694083379927612
F0.45489554363304807
F0.14485568741639387
F0.5432363123894722
F0.0002225005957164905
F0.4352591548349265
F0.22806420194077892
F0.016034756318990206
F0.8614864319891543
F0.8279489066114988
F0.40206609954725225
F0.6860423362332113
F0.8956060687967652
F0.6961247712250841
F0.6494065375197529
F0.11497375071875582
F0.27609932181964003
F0.7709923567805593
F0.3770143265228534
tp150
a(F0.22832825977297944
F0.12820060848217962
F0.7007502934420166
F0.43101505665259876
F0.5519758064511204
F0.4210529616059532
F0.07539777418944615
F0.025837173287506454
F0.5880550203259137
F0.2744454819497997
F0.13140376275818533
F0.9934667806582917
F0.03285220898692198
F0.2932310762629956
F0.8279170842251296
F0.09107453332624305
F0.5698004150380139
F0.13472739098107644
F0.18468951505821862
F0.6980994717354673
tp151
a(F0.3861444122529143
F0.5049510107947622
F0.3632174791890789
F0.9212340165852035
F0.3137913803605479
F0.9334757097997407
F0.5908423030939706
F0.20057258828646607
F0.3571493905292852
F0.839070288844478
F0.09030345685257901
F0.10867505642874198
F0.06368253250233102
F0.49555446746735576
F0.7700605204909374
F0.2784102312362039
F0.7601964813250007
F0.3528164968611638
F0.49698486362264427
F0.18168965276545979
tp152
a(F0.20973183776053217
F0.038655499724427056
F0.6777500273204202
F0.14073009326815755
F0.5609763627191194
F0.7539943149349604
F0.3648736723010849
F0.08475939888081652
F0.6216076793919492
F0.23013526094322256
F0.653358263911096
F0.5418642714222094
F0.5975996641347351
F0.10087657116499016
F0.7406814216092084
F0.7420967520000734
F0.45112729115573136
F0.7895847526215959
F0.020749091150382037
F0.3878109210168943
tp153
a(F0.46572778976284124
F0.3765215735845713
F0.8771779936175763
F0.6590464815261229
F0.26391120343939045
F0.4428135293140951
F0.43142472509113994
F0.15457284675301286
F0.5449786934202002
F0.04886261258432678
F0.1044030025447471
F0.5038149961535475
F0.9341933227319417
F0.849249789463021
F0.43036021293082083
F0.27056811910426715
F0.11484246321990099
F0.5504123757158057
F0.23149753007866491
F0.40952089631886324
tp154
a(F0.8369206426336493
F0.986846503903077
F0.00433907470559447
F0.32014826438770494
F0.7098918160101957
F0.8183995945308435
F0.4598010533625122
F0.6384875166688831
F0.03812806121029688
F0.48218869734172376
F0.6246788973937536
F0.6268852866137571
F0.8725294199866568
F0.4811599744273459
F0.1566024439315543
F0.2711415530492064
F0.7315134254324528
F0.25939115385427935
F0.5199652095635539
F0.9396889768758226
tp155
a(F0.18783434144578892
F0.8018016097317329
F0.5192500696197753
F0.3172009507413517
F0.14510693939076946
F0.6099869012285222
F0.9037322507861038
F0.8141725317629921
F0.6229889638053315
F0.5799677579040082
F0.041243958427466976
F0.9107082715165637
F0.5916964597784666
F0.7328852959730896
F0.28235336297321145
F0.6551027220028851
F0.7723707039166102
F0.6776610625430157
F0.6528204475511348
F0.22977757852580183
tp156
a(F0.8064809373475734
F0.326590895520082
F0.7022043933400742
F0.9753628144744501
F0.29921111623895025
F0.8265997177016304
F0.6521832139115178
F0.060289229862014126
F0.2038067078257052
F0.523351338078813
F0.9792301419315181
F0.47568355910387017
F0.4529156941861018
F0.16709550885305757
F0.8083925537928621
F0.5517587177985228
F0.052835023967703676
F0.11005209280899242
F0.19769201409421044
F0.25055121227714283
tp157
a(F0.8973126820186089
F0.29263989437742133
F0.979786557754392
F0.3205315198899792
F0.6386197516677787
F0.2485466523412646
F0.6546548396281712
F0.083042818142949
F0.389834679555941
F0.45216915978783445
F0.4726641575375796
F0.6928942000264895
F0.9650707052065276
F0.025312392055442445
F0.8896281871236357
F0.15300588426560546
F0.9056317163911658
F0.7109790441099301
F0.32092413320276214
F0.31384700003695387
tp158
a(F0.3437897180204196
F0.9887274356896143
F0.0774137595987281
F0.9824693505619206
F0.5160496525081822
F0.05399689548829112
F0.9832005130667495
F0.19156781194111294
F0.6173791065813041
F0.5327277835733206
F0.04325389384773948
F0.6232048075207709
F0.45951518083679166
F0.4226074898868203
F0.42904539698804334
F0.5962498471656537
F0.1331895482851878
F0.28768651328395367
F0.2722606527506124
F0.6701628124181631
tp159
a(F0.7353945449064682
F0.779810231351022
F0.3369568059265521
F0.598520871221052
F0.7863933333481978
F0.3508100029262917
F0.544209339906199
F0.6440815370622187
F0.6258883986990463
F0.871330716041646
F0.8474239584233435
F0.2071716460746592
F0.15915874852170842
F0.93693085199435
F0.7809226939157846
F0.3295990552695678
F0.42884892806796626
F0.6632554468392625
F0.923773710646133
F0.4412025627760835
tp160
a(F0.0833458453652145
F0.6804937061335596
F0.8621876262925291
F0.3055278008073544
F0.5006659538605281
F0.8370644929824873
F0.7266976701183114
F0.7965986148470277
F0.20610191719157978
F0.7216832571979664
F0.4958691094391816
F0.39517482355511135
F0.1762165350987872
F0.5509770594808624
F0.42106963339119285
F0.6637797345763794
F0.6934934478064229
F0.743169814017702
F0.32353885158454254
F0.9024500300010073
tp161
a(F0.2919917588493075
F0.6997708231908212
F0.26662517797672214
F0.31561762065189003
F0.4817763585520002
F0.6887686007195428
F0.8165484759111666
F0.8801875194075153
F0.7644303189320483
F0.9565982909794667
F0.42514339759003106
F0.5522686478647795
F0.07610515706775689
F0.4743658761633961
F0.9562933895202936
F0.5514702972808374
F0.1030271201723405
F0.6025190973455651
F0.4026922612272259
F0.764098861982512
tp162
a(F0.4894961836374637
F0.9058828749436445
F0.2344839774916856
F0.8322778149062261
F0.23033088379696787
F0.48513945926802204
F0.7083826542648155
F0.47294055600704765
F0.8837858630452411
F0.6517603278960559
F0.39380866226077926
F0.3374732283399222
F0.8552054771386906
F0.8141227617603327
F0.24781003863625062
F0.4968857704140833
F0.8383791373805063
F0.6534919445282577
F0.6045185812504454
F0.31839523463240615
tp163
a(F0.8944363681698677
F0.8560804644155231
F0.28298268841255714
F0.7656149964940431
F0.927903564870039
F0.33729064102980677
F0.4712483553752107
F0.661533563234887
F0.11999441666506927
F0.9359899040570486
F0.5772909617599766
F0.7538560799535953
F0.6189827183595483
F0.10829731201516268
F0.5605296734427533
F0.37800415010884825
F0.6005232092927643
F0.4936043479854825
F0.46995193696196147
F0.7405622871047032
tp164
a(F0.48870237572747355
F0.1964795223108613
F0.7135944244505164
F0.314028630397417
F0.4361699463569837
F0.40177080171685364
F0.9376461198728028
F0.25677896310187653
F0.16385113046796607
F0.47444926715358837
F0.163243223012831
F0.3128521533512886
F0.20945347941657155
F0.06446642642230827
F0.6261467712004258
F0.009487458234784585
F0.3145044999940435
F0.5330123184036354
F0.700620972622703
F0.24263913294980577
tp165
a(F0.42919129107547793
F0.4511639010716746
F0.3141015046243609
F0.4512304145217171
F0.6681950854187849
F0.9072506191382534
F0.6431424214035533
F0.7135333973246093
F0.20397301352969055
F0.4353285416135726
F0.24603348657130752
F0.9126106893948306
F0.7952781789348948
F0.15832026769417584
F0.3373723656253974
F0.19138113015712588
F0.46780654749483397
F0.9093426275300799
F0.5845950881403317
F0.02664175727615048
tp166
a(F0.10893242912097922
F0.7400629005970208
F0.420129415351185
F0.9643500296568531
F0.0166036392159149
F0.5590677428049026
F0.4351859552633519
F0.47255829213931677
F0.5993833262493071
F0.9572696951496283
F0.05662521381075325
F0.20931830850185607
F0.39262406223405866
F0.04525914699492406
F0.7639107908974733
F0.6528908171042356
F0.7313872409964077
F0.19817871117249997
F0.46480194417515286
F0.534397379401838
tp167
a(F0.08598764022771987
F0.49724833927919654
F0.9781106221158536
F0.7800642052130796
F0.11237777425201712
F0.5095371563904884
F0.5955038587174298
F0.03286327614149809
F0.07316604725752096
F0.8459277127558601
F0.20740329353992593
F0.007611131189769971
F0.43842579632073286
F0.14687030100409781
F0.2769426015217419
F0.8361171344418162
F0.9017068110278249
F0.5790800929338265
F0.6082283438092905
F0.7540542926852982
tp168
a(F0.9798776258671291
F0.4688476285372668
F0.6589819110104059
F0.6448631134983108
F0.5321230061130621
F0.5055472632337623
F0.8519445809522953
F0.13576681787265443
F0.4367405617758877
F0.5097906563464222
F0.83952720327086
F0.2673450133617824
F0.3453701660596924
F0.592618103602448
F0.12262457628280543
F0.21508450753588593
F0.9698348155320984
F0.8536670367234878
F0.030835446788119003
F0.5515244018341752
tp169
a(F0.7350792947586668
F0.08186392294633027
F0.025175894086592487
F0.12716887475071736
F0.7135400871511653
F0.18093575518355554
F0.7024667578307874
F0.4368315519368251
F0.3233632510732001
F0.5488739811327183
F0.15813206872068797
F0.14307517660908287
F0.7218594688102278
F0.6986878947054517
F0.299261247016938
F0.6688361685255265
F0.7804553789558053
F0.3867787520930399
F0.29577240491187307
F0.9518985666243363
tp170
a(F0.3419048914780095
F0.5076698096780558
F0.9276941140586098
F0.0032131194441608057
F0.2063688598307254
F0.690782216089551
F0.7039892841131264
F0.7106889181191219
F0.6241202903651542
F0.6740091851949412
F0.48202165754021664
F0.816290802017413
F0.7784990388116657
F0.758831290843776
F0.8119591617887676
F0.20467499473954331
F0.6602779432960572
F0.5349635109609674
F0.7981370118869585
F0.533055320030473
tp171
a(F0.45698236134627135
F0.5905304585079352
F0.22427484002494658
F0.5943384669061896
F0.2323595391139458
F0.5404773250499432
F0.18126820008554978
F0.7672294262877186
F0.02914250272306773
F0.08474225716533723
F0.149938484417663
F0.9320874503549182
F0.5194619076381082
F0.846814455930299
F0.9700427075870744
F0.32833239320683283
F0.8150628118853696
F0.788616099508554
F0.28128834201712427
F0.2148762379418815
tp172
a(F0.4202014689294197
F0.7603366763405288
F0.9980820245590657
F0.0024677543480393638
F0.8533429826923872
F0.3470491709476946
F0.3490338862784653
F0.40586998801315954
F0.7034514031938511
F0.5450734719695267
F0.6779089227748667
F0.7706117489656601
F0.822427696177775
F0.9947573773982242
F0.8531716150574343
F0.5718685010107979
F0.41814853001253494
F0.17252335256582108
F0.6414560004770848
F0.9415432482353807
tp173
a(F0.08503060388860084
F0.5141676203478872
F0.5343543998804986
F0.2696146155179746
F0.9990890903063465
F0.5256472287562565
F0.4514077227649491
F0.38991893800736543
F0.6168551034809114
F0.46199339056905775
F0.0491618971531651
F0.14069935408686607
F0.26236363577471444
F0.8880389856683115
F0.761581197466087
F0.03795874416326428
F0.0551176128192038
F0.9631786097292308
F0.7250628005184667
F0.8026733217433392
tp174
a(F0.7345239374758795
F0.10656058690520365
F0.6476524038673729
F0.6192817537430225
F0.40398421107497795
F0.7619961038743112
F0.9331715939319493
F0.1500737277718852
F0.21872574819184587
F0.7829592964653556
F0.8626990351620716
F0.6583350560889861
F0.2969736392890777
F0.12001870246104385
F0.3726464641901953
F0.29097750903245034
F0.20568930006258224
F0.44574030550431865
F0.4730543209365944
F0.35785502077642173
tp175
a(F0.4380315801521969
F0.366220992566762
F0.43226520661288725
F0.20128871146053795
F0.6844793337987909
F0.9964459430332974
F0.7074187712990011
F0.3564881233414554
F0.013319947113959896
F0.3409717879028119
F0.7588258222565718
F0.41867366422968466
F0.7977632313105609
F0.10374739020081203
F0.1434153118773186
F0.7956265025387108
F0.49196046808614613
F0.006152398331058073
F0.31492280275696394
F0.8883743912348773
tp176
a(F0.4572529641246177
F0.7494906631824402
F0.4979434312084433
F0.5352688007923373
F0.905985315363738
F0.43531937285684397
F0.6296982255571277
F0.3725270616365821
F0.7513981076347308
F0.26548463189508276
F0.5674384617197696
F0.7253340267255587
F0.3547271958287549
F0.035970758242046874
F0.49298918349386533
F0.813244292603822
F0.3170824922210377
F0.782318801412107
F0.8297640270970076
F0.8442606048253176
tp177
a(F0.09443864673613678
F0.7643618487178373
F0.46514478098868217
F0.4358209649024988
F0.10946690225711075
F0.30615972992258245
F0.1839148879505571
F0.7110438525606626
F0.16237415899845165
F0.491858961162532
F0.16929706158141877
F0.6138524697793469
F0.5320633036632055
F0.05175136432048133
F0.466584035992731
F0.24246040231601507
F0.745190492872651
F0.02362792166351213
F0.5057276156613337
F0.5600299574423993
tp178
a(F0.11384074772668706
F0.2526576828107694
F0.48218182511582
F0.40958637373675844
F0.8698490529430983
F0.3920540060111348
F0.6412559672102357
F0.7563240239550088
F0.42882173728577777
F0.2826612225918078
F0.5185443834526339
F0.3754671724257028
F0.014929714550391382
F0.056483574366900324
F0.8644122537763431
F0.5247203053906468
F0.3403958273376102
F0.7916771477517301
F0.2249687898713546
F0.55643127757406
tp179
a(F0.8528476624229482
F0.40833192091536175
F0.9117753052942976
F0.386342551595917
F0.1274930507222175
F0.3720200622139427
F0.5412547673425809
F0.698255914202844
F0.04811767307587722
F0.9682825698574933
F0.4675094146564418
F0.1491364970481197
F0.1583161150055934
F0.34736097953042
F0.32185288970852133
F0.5708576350512674
F0.5841928525462572
F0.4706353820482152
F0.357964114752533
F0.4113230775330792
tp180
a(F0.6432232568496734
F0.14476658914957974
F0.5500121492583211
F0.8088057058308417
F0.604873155763355
F0.32176044551772953
F0.7874085826671198
F0.4137865909951698
F0.8290827430694404
F0.8904186066825942
F0.25092784236103793
F0.16988911045942445
F0.3557082168436959
F0.19256253551583125
F0.6442061170135915
F0.878559436774874
F0.37837354208783025
F0.04291795365731155
F0.5923151498811994
F0.005394701709386385
tp181
a(F0.144581842794698
F0.9809811901833666
F0.33290231612745846
F0.4279335256582285
F0.9071780325898559
F0.4975225421474474
F0.49209102964655627
F0.5690742263289684
F0.7064461922399975
F0.5626450521530926
F0.3948474261216236
F0.02613343087778175
F0.6999959986720762
F0.04919647053785492
F0.59612406741042
F0.3316050711703913
F0.35561670716917315
F0.6725523799163899
F0.15536700929327518
F0.3559323229293513
tp182
a(F0.7029187217156501
F0.8171592207176496
F0.6446111286482541
F0.053055510821583995
F0.19430648821765717
F0.2824360678097182
F0.07078687742704648
F0.9699245441143302
F0.568492722548846
F0.9152310820830768
F0.8748755462952938
F0.12413687058210399
F0.25211258351046684
F0.5853790429175761
F0.8892827685228102
F0.5891044967223611
F0.27119006111297606
F0.03424506287079365
F0.29434529433476675
F0.9824748300213766
tp183
a(F0.42869221198135854
F0.7994486975913718
F0.5667780684843792
F0.27817980760504035
F0.48581309952232754
F0.4579419254340755
F0.13702038697053354
F0.06320163819500213
F0.2561723888851115
F0.2584397338501424
F0.7647669780820565
F0.03276127277115137
F0.36856130398170495
F0.2968462344554147
F0.5416142499587843
F0.020455608304510098
F0.45956090878815403
F0.7656265879482621
F0.40410635590840294
F0.037015115051816094
tp184
a(F0.8428630084320236
F0.8694653800054659
F0.4815981034048915
F0.7824671975721947
F0.5115657128279024
F0.1528519024501641
F0.9978261315780468
F0.48739932060819924
F0.7042049921702913
F0.8021453338447078
F0.33789042925846036
F0.8708828392460717
F0.22648616748958794
F0.8672164715035795
F0.5027378498929388
F0.6003210755546983
F0.39958651428074976
F0.4412163135641536
F0.054282441192266884
F0.14400995044091158
tp185
a(F0.8376227539981833
F0.8683048806299047
F0.4722735887922539
F0.712183539521768
F0.7532428773554839
F0.254951364323189
F0.29487922380992826
F0.13001541907137915
F0.39396750704228956
F0.14772886540109276
F0.13720638119242246
F0.27145255325737894
F0.9778299091285996
F0.3409819235223831
F0.6648855638724869
F0.5906030259362334
F0.0522127910307163
F0.2476670681705646
F0.8689697733819562
F0.020286759170861313
tp186
a(F0.3426405987965121
F0.49450971413813327
F0.4525277180491776
F0.4989338544564661
F0.42469503788176455
F0.05578245668122905
F0.054406813934445686
F0.09506444132371827
F0.7885865801403112
F0.636257530177724
F0.16246021868564442
F0.06661646177433489
F0.33727923038788876
F0.4391433194503137
F0.9811895737895129
F0.8429058856848376
F0.5286521046516263
F0.027563324205572948
F0.41354920498847003
F0.8041370328384883
tp187
a(F0.3708252302077947
F0.1000317856599302
F0.9023646645598848
F0.30538156035590136
F0.8149798774455752
F0.9214120892316846
F0.7294557979775805
F0.31708642902600825
F0.5417177207670226
F0.5276771157890388
F0.5637397624147569
F0.534939001682994
F0.3653872966885231
F0.2352035992695457
F0.49702940068339174
F0.08143652949700753
F0.8475072363429702
F0.2151302313399257
F0.1316489678963062
F0.8139669665468808
tp188
a(F0.45032537921741467
F0.6373801301885411
F0.9597219261541357
F0.5122369065893001
F0.04286217482184995
F0.8577380569737391
F0.47801138894951345
F0.4305707140735229
F0.903137827139072
F0.031465725211871076
F0.018413446975966807
F0.43673024915347003
F0.016259566228939315
F0.8160973480552133
F0.19702656185508283
F0.8687321171997346
F0.8331237893242098
F0.8852665915967644
F0.5531452846585491
F0.6835664629362208
tp189
a(F0.6489566926090988
F0.0353466312885794
F0.32078949112208044
F0.9567604732662165
F0.026431510969513683
F0.39623898524284995
F0.857048998918134
F0.5202027831979475
F0.15162337617520816
F0.6095041338303978
F0.9469787664722233
F0.33550689437539594
F0.5094798950148705
F0.1486539585954425
F0.22513861576841643
F0.065687347382263
F0.6691715948871493
F0.27402404276854087
F0.21783192366145832
F0.6687024260648139
tp190
a(F0.8618173789066165
F0.7653576390927831
F0.30918977576209006
F0.5914468727302422
F0.9555621374991091
F0.11979497880969359
F0.755067343435138
F0.4196477395994248
F0.4793218799507776
F0.11624087359330282
F0.8044689923144044
F0.44084694804412183
F0.682286716998313
F0.5267576439251946
F0.2119789513262582
F0.6386115097120717
F0.27046333668468703
F0.3049847269364082
F0.847238730174529
F0.25684413262302863
tp191
a(F0.14369024082494775
F0.20301020397056724
F0.5731971969672613
F0.4273547108095477
F0.7381002684733287
F0.6776824388434677
F0.3222655222080736
F0.5756182252313073
F0.15604530521361537
F0.5668198277074666
F0.3153604204755154
F0.6421577613824624
F0.7922239258883106
F0.36248240253551844
F0.7856960385749355
F0.9511855009350394
F0.6427645636450514
F0.8344372608896776
F0.4677537422993545
F0.25818520460707706
tp192
a(F0.9495633673569585
F0.03395040948339223
F0.7742571719389164
F0.3243589291350172
F0.33272612737068086
F0.18819254093933513
F0.3931744102946686
F0.8367815489063246
F0.29303970910104615
F0.578451319831688
F0.23248605571753134
F0.7213903555768277
F0.9085297770910695
F0.39744543058732906
F0.6568401567673123
F0.8239001421291915
F0.7406955195827248
F0.7707699911311982
F0.6123659607314003
F0.36309593559319386
tp193
a(F0.6483651136072471
F0.03553383838823021
F0.7906329249406912
F0.7100184443286411
F0.567494803773087
F0.2297590307686458
F0.44462465806968665
F0.1618152358620507
F0.06276091617524482
F0.6722068423035434
F0.5175634678019944
F0.9714180722373639
F0.9490847194147546
F0.31721361345565546
F0.18841429850158953
F0.33736890560127175
F0.7196592687562796
F0.9408359067867198
F0.8130894341156645
F0.6594728177069773
tp194
a(F0.39372468072219
F0.18070286556856674
F0.2648830592726461
F0.4825732167936092
F0.8890045611010448
F0.4554177355185941
F0.7720390849565067
F0.5555832132588272
F0.8114614013514259
F0.29055893964733415
F0.47356733913216753
F0.3778722340511089
F0.346219982112273
F0.6823937617704833
F0.07373061887913512
F0.23889315126938138
F0.8801117358546694
F0.8376231948689274
F0.008732647012790973
F0.8943847455241413
tp195
a(F0.6007453341175252
F0.38061914137048336
F0.26243755512473244
F0.7698219783403405
F0.3103177967042914
F0.14701353760509672
F0.9578455146695454
F0.6614254582449871
F0.8077570164584444
F0.6731288463493935
F0.2530814777482161
F0.37018758864812884
F0.7357258483391764
F0.5815059247124589
F0.051192337421160805
F0.36737287058275514
F0.6718022411293579
F0.46682126601217233
F0.3736101827920072
F0.8102391787666562
tp196
a(F0.5183106607737376
F0.0065012118475029634
F0.9003711677499916
F0.31616109754013
F0.7498074183498957
F0.08425672506671478
F0.2824772914658519
F0.634225367970185
F0.04676864931682756
F0.26290943991145377
F0.9579722959699863
F0.2018827866231917
F0.7217459076123585
F0.21539951188933149
F0.9309365090190248
F0.2190714677172514
F0.49312155437434524
F0.2982716173151272
F0.6394207881407719
F0.0029820228297506857
tp197
a(F0.8192166924708156
F0.6832814299723345
F0.40486875568334146
F0.6892506202930144
F0.35038308307819344
F0.43589163756360094
F0.9596070078195122
F0.9303169701975067
F0.07440466637147947
F0.3684747503179362
F0.0328010464310855
F0.20104240563072528
F0.5037643931480976
F0.403107687044733
F0.5944441412708239
F0.9868823361838591
F0.752994395858817
F0.45212148298212174
F0.4385398220684822
F0.22818862022211917
tp198
a(F0.1669978879237326
F0.9457786024944657
F0.38939344197803294
F0.3854589873543548
F0.5252910664529762
F0.8700352459406578
F0.2780992067590158
F0.5468643564164251
F0.39688194976235736
F0.6850492675619612
F0.700547172477014
F0.774219322565712
F0.6601966551204517
F0.9521454176968445
F0.8035348664684008
F0.7404214130587683
F0.7674763903375288
F0.2222371871106813
F0.2870012988367546
F0.0010722943719440048
tp199
a(F0.7542244464440858
F0.8879595172774687
F0.272740895709113
F0.7825648731645876
F0.557659428739333
F0.06708119840617
F0.2584658948004439
F0.08149128606846923
F0.8621377387867931
F0.2929892370764623
F0.9571067979379175
F0.12679113537308728
F0.36785679907343904
F0.2906319724967228
F0.45227044706115704
F0.9250988870233802
F0.6290974973674788
F0.46324719020038785
F0.4977251642712537
F0.8422583864274068
tp200
a.