(lp0
((F0.3
S'TwoPoint'
p1
S'continuousDominanceLoss'
p2
I150
I40
tp3
(F-134981.50607405594
tp4
tp5
a((F0.1
S'uniform'
p6
g2
I150
I80
tp7
(F-134941.59991869173
tp8
tp9
a((F0.1
g6
g2
I100
I20
tp10
(F-59994.60232939141
tp11
tp12
a((F0.3
S'singlePoint'
p13
S'dominanceCount'
p14
I150
I20
tp15
(F-134981.50607405597
tp16
tp17
a((F0.3
g1
g2
I150
I20
tp18
(F-134981.50607405603
tp19
tp20
a((F0.5
g13
g14
I100
I40
tp21
(F-59994.60232939141
tp22
tp23
a((F0.1
g1
g14
I50
I80
tp24
(F-14998.101421875344
tp25
tp26
a((F0.3
g13
g14
I50
I80
tp27
(F-14998.101421875344
tp28
tp29
a((F0.5
g13
g14
I100
I20
tp30
(F-59994.60232939408
tp31
tp32
a((F0.5
g6
g2
I150
I20
tp33
(F-134864.60813118643
tp34
tp35
a((F0.1
g13
S'dominanceRank'
p36
I150
I20
tp37
(F-134981.50607405594
tp38
tp39
a((F0.3
g13
g36
I150
I20
tp40
(F-134981.50607405597
tp41
tp42
a((F0.5
g13
g2
I150
I80
tp43
(F-134981.50607405594
tp44
tp45
a((F0.5
g1
g2
I150
I80
tp46
(F-134981.50607405594
tp47
tp48
a((F0.3
g1
g14
I50
I20
tp49
(F-14998.101421875348
tp50
tp51
a((F0.1
g6
g2
I100
I40
tp52
(F-59994.60232939141
tp53
tp54
a((F0.3
g13
g36
I50
I80
tp55
(F-14998.101421875344
tp56
tp57
a((F0.3
g1
g14
I50
I80
tp58
(F-14998.101421875344
tp59
tp60
a((F0.1
g13
g14
I100
I80
tp61
(F-59994.60232939141
tp62
tp63
a((F0.5
g1
g2
I100
I40
tp64
(F-59994.60232939141
tp65
tp66
a((F0.1
g6
g36
I50
I20
tp67
(F-14998.101421875344
tp68
tp69
a((F0.5
g1
g14
I150
I40
tp70
(F-134941.59991869173
tp71
tp72
a((F0.3
g6
g14
I100
I80
tp73
(F-59994.60232939141
tp74
tp75
a((F0.5
g13
g36
I100
I20
tp76
(F-59994.60232939299
tp77
tp78
a((F0.1
g13
g2
I150
I40
tp79
(F-134981.50607405594
tp80
tp81
a((F0.3
g6
g36
I150
I40
tp82
(F-134981.50607405594
tp83
tp84
a((F0.3
g6
g2
I50
I40
tp85
(F-14998.101421875344
tp86
tp87
a((F0.1
g1
g36
I100
I20
tp88
(F-59994.60232939141
tp89
tp90
a((F0.3
g13
g36
I100
I40
tp91
(F-59994.60232939141
tp92
tp93
a((F0.1
g13
g14
I100
I20
tp94
(F-59994.60232939141
tp95
tp96
a((F0.5
g13
g2
I150
I40
tp97
(F-134976.95012039953
tp98
tp99
a((F0.3
g6
g2
I150
I20
tp100
(F-134981.50607405594
tp101
tp102
a((F0.3
g6
g14
I100
I40
tp103
(F-59994.60232939141
tp104
tp105
a((F0.5
g13
g14
I50
I40
tp106
(F-14998.101421875372
tp107
tp108
a((F0.1
g13
g36
I100
I20
tp109
(F-59994.60232939141
tp110
tp111
a((F0.1
g6
g14
I50
I80
tp112
(F-14998.101421875344
tp113
tp114
a((F0.5
g6
g36
I150
I80
tp115
(F-134981.50607405594
tp116
tp117
a((F0.5
g13
g14
I150
I40
tp118
(F-134941.59991869173
tp119
tp120
a((F0.5
g6
g36
I50
I40
tp121
(F-14998.101421875344
tp122
tp123
a((F0.1
g1
g14
I150
I20
tp124
(F-134981.50607405594
tp125
tp126
a((F0.1
g13
g36
I100
I80
tp127
(F-59994.60232939141
tp128
tp129
a((F0.3
g1
g36
I100
I80
tp130
(F-59994.60232939141
tp131
tp132
a((F0.5
g1
g2
I50
I20
tp133
(F-14998.101421875652
tp134
tp135
a((F0.5
g1
g36
I150
I40
tp136
(F-134981.50607405594
tp137
tp138
a((F0.3
g13
g2
I150
I20
tp139
(F-134981.506074056
tp140
tp141
a((F0.5
g13
g36
I150
I20
tp142
(F-134981.50607406578
tp143
tp144
a((F0.3
g6
g2
I50
I20
tp145
(F-14998.101421875344
tp146
tp147
a((F0.3
g6
g2
I150
I40
tp148
(F-134981.50607405594
tp149
tp150
a((F0.1
g13
g2
I100
I80
tp151
(F-59994.60232939141
tp152
tp153
a((F0.3
g1
g36
I150
I80
tp154
(F-134981.50607405594
tp155
tp156
a.