(lp0
((F0.3
S'TwoPoint'
p1
S'continuousDominanceLoss'
p2
I150
I40
tp3
(F-45000.0
tp4
tp5
a((F0.5
S'uniform'
p6
g2
I150
I80
tp7
(F-45000.0
tp8
tp9
a((F0.5
g1
S'dominanceCount'
p10
I150
I80
tp11
(F-45000.0
tp12
tp13
a((F0.3
S'singlePoint'
p14
g2
I50
I40
tp15
(F-5000.0
tp16
tp17
a((F0.5
g1
S'dominanceRank'
p18
I100
I40
tp19
(F-20000.0
tp20
tp21
a((F0.1
g14
g10
I150
I40
tp22
(F-45000.0
tp23
tp24
a((F0.1
g6
g10
I150
I20
tp25
(F-45000.0
tp26
tp27
a((F0.3
g1
g10
I50
I40
tp28
(F-5000.0
tp29
tp30
a((F0.5
g6
g10
I150
I80
tp31
(F-45000.0
tp32
tp33
a((F0.1
g1
g18
I150
I80
tp34
(F-45000.0
tp35
tp36
a((F0.1
g6
g18
I100
I20
tp37
(F-20000.0
tp38
tp39
a((F0.5
g6
g2
I150
I40
tp40
(F-45000.0
tp41
tp42
a((F0.3
g14
g18
I100
I80
tp43
(F-20000.0
tp44
tp45
a((F0.5
g6
g2
I150
I20
tp46
(F-45000.0
tp47
tp48
a((F0.5
g1
g18
I50
I20
tp49
(F-5000.0
tp50
tp51
a((F0.1
g1
g2
I100
I20
tp52
(F-20000.0
tp53
tp54
a((F0.1
g14
g18
I150
I40
tp55
(F-45000.0
tp56
tp57
a((F0.3
g1
g10
I150
I40
tp58
(F-45000.0
tp59
tp60
a((F0.5
g1
g18
I50
I40
tp61
(F-5000.0
tp62
tp63
a((F0.1
g14
g10
I150
I20
tp64
(F-45000.0
tp65
tp66
a((F0.1
g1
g18
I150
I20
tp67
(F-45000.0
tp68
tp69
a((F0.1
g1
g10
I100
I80
tp70
(F-20000.0
tp71
tp72
a((F0.5
g6
g2
I100
I40
tp73
(F-20000.0
tp74
tp75
a((F0.3
g6
g18
I150
I20
tp76
(F-45000.0
tp77
tp78
a((F0.3
g14
g18
I150
I40
tp79
(F-45000.0
tp80
tp81
a((F0.3
g1
g10
I150
I80
tp82
(F-45000.0
tp83
tp84
a((F0.3
g6
g18
I150
I40
tp85
(F-45000.0
tp86
tp87
a((F0.5
g14
g10
I50
I80
tp88
(F-5000.0
tp89
tp90
a((F0.1
g6
g2
I150
I40
tp91
(F-45000.0
tp92
tp93
a((F0.1
g1
g10
I100
I80
tp94
(F-20000.0
tp95
tp96
a((F0.3
g6
g10
I100
I20
tp97
(F-20000.0
tp98
tp99
a((F0.1
g14
g18
I100
I40
tp100
(F-20000.0
tp101
tp102
a((F0.3
g14
g2
I100
I80
tp103
(F-20000.0
tp104
tp105
a((F0.1
g14
g18
I50
I20
tp106
(F-5000.0
tp107
tp108
a((F0.3
g1
g2
I100
I20
tp109
(F-20000.0
tp110
tp111
a((F0.5
g14
g18
I50
I40
tp112
(F-5000.0
tp113
tp114
a((F0.1
g6
g18
I150
I80
tp115
(F-45000.0
tp116
tp117
a((F0.1
g14
g10
I50
I40
tp118
(F-5000.0
tp119
tp120
a((F0.3
g1
g18
I50
I40
tp121
(F-5000.0
tp122
tp123
a((F0.3
g1
g10
I100
I20
tp124
(F-20000.0
tp125
tp126
a((F0.1
g6
g2
I100
I80
tp127
(F-20000.0
tp128
tp129
a((F0.3
g6
g18
I50
I80
tp130
(F-5000.0
tp131
tp132
a((F0.3
g14
g18
I50
I40
tp133
(F-5000.0
tp134
tp135
a((F0.1
g6
g2
I50
I20
tp136
(F-5000.0
tp137
tp138
a((F0.3
g6
g18
I150
I20
tp139
(F-45000.0
tp140
tp141
a((F0.3
g6
g2
I150
I20
tp142
(F-45000.0
tp143
tp144
a((F0.1
g1
g18
I100
I80
tp145
(F-20000.0
tp146
tp147
a((F0.3
g14
g10
I50
I20
tp148
(F-5000.0
tp149
tp150
a((F0.1
g14
g2
I150
I20
tp151
(F-45000.0
tp152
tp153
a((F0.5
g6
g18
I150
I20
tp154
(F-45000.0
tp155
tp156
a.