(lp0
((F0.3
S'TwoPoint'
p1
S'continuousDominanceLoss'
p2
I50
I20
tp3
(F-18932.350519913194
tp4
tp5
a((F0.1
S'singlePoint'
p6
g2
I50
I20
tp7
(F-18940.91911253145
tp8
tp9
a((F0.5
g6
S'dominanceRank'
p10
I100
I40
tp11
(F-75712.66675794873
tp12
tp13
a((F0.1
g6
g10
I100
I20
tp14
(F-76024.04808505696
tp15
tp16
a((F0.1
g6
S'dominanceCount'
p17
I150
I40
tp18
(F-170962.63745243728
tp19
tp20
a((F0.1
g6
g2
I100
I80
tp21
(F-75601.88414273178
tp22
tp23
a((F0.1
g1
g17
I50
I20
tp24
(F-19054.86483207375
tp25
tp26
a((F0.1
g6
g2
I100
I40
tp27
(F-75596.23486648471
tp28
tp29
a((F0.5
g6
g2
I100
I20
tp30
(F-75783.27980052758
tp31
tp32
a((F0.5
g1
g17
I50
I20
tp33
(F-18984.552410772176
tp34
tp35
a((F0.1
S'uniform'
p36
g17
I50
I20
tp37
(F-19002.54756421242
tp38
tp39
a((F0.1
g6
g10
I150
I20
tp40
(F-170279.5941080632
tp41
tp42
a((F0.1
g1
g17
I100
I20
tp43
(F-75840.0736527555
tp44
tp45
a((F0.1
g1
g17
I150
I80
tp46
(F-170150.327144363
tp47
tp48
a((F0.1
g36
g17
I100
I80
tp49
(F-75567.18965132892
tp50
tp51
a((F0.3
g6
g10
I50
I80
tp52
(F-18972.762341890164
tp53
tp54
a((F0.1
g6
g10
I100
I40
tp55
(F-75976.09967783547
tp56
tp57
a((F0.3
g36
g17
I100
I80
tp58
(F-75574.07300968045
tp59
tp60
a((F0.3
g36
g2
I100
I40
tp61
(F-75580.43775220177
tp62
tp63
a((F0.1
g6
g17
I50
I40
tp64
(F-19009.632934397192
tp65
tp66
a((F0.3
g6
g17
I50
I40
tp67
(F-19008.684622015822
tp68
tp69
a((F0.1
g1
g10
I150
I80
tp70
(F-170126.12735013675
tp71
tp72
a((F0.5
g6
g2
I150
I20
tp73
(F-170160.12714719868
tp74
tp75
a((F0.3
g36
g10
I100
I20
tp76
(F-75615.50178951751
tp77
tp78
a((F0.1
g6
g10
I100
I40
tp79
(F-75976.09967783547
tp80
tp81
a((F0.1
g6
g2
I100
I40
tp82
(F-75596.23486648471
tp83
tp84
a((F0.1
g1
g2
I150
I40
tp85
(F-169732.94311310299
tp86
tp87
a((F0.3
g1
g2
I100
I80
tp88
(F-75579.07810078378
tp89
tp90
a((F0.1
g6
g17
I150
I80
tp91
(F-170985.60617692006
tp92
tp93
a((F0.5
g6
g10
I150
I80
tp94
(F-170444.8910106708
tp95
tp96
a((F0.5
g6
g2
I50
I20
tp97
(F-18950.823998417356
tp98
tp99
a((F0.1
g1
g17
I100
I20
tp100
(F-75840.0736527555
tp101
tp102
a((F0.1
g6
g2
I50
I40
tp103
(F-18964.666471474593
tp104
tp105
a((F0.5
g36
g17
I50
I40
tp106
(F-18951.548178853216
tp107
tp108
a((F0.5
g6
g17
I50
I20
tp109
(F-19023.48335053905
tp110
tp111
a((F0.1
g6
g2
I150
I20
tp112
(F-169933.5538617778
tp113
tp114
a((F0.1
g1
g2
I150
I80
tp115
(F-169733.7922552203
tp116
tp117
a((F0.1
g6
g17
I150
I40
tp118
(F-170962.63745243728
tp119
tp120
a((F0.5
g6
g17
I150
I40
tp121
(F-170339.71680499602
tp122
tp123
a((F0.1
g6
g10
I100
I80
tp124
(F-75907.91418538184
tp125
tp126
a((F0.3
g36
g10
I50
I20
tp127
(F-18936.382981367915
tp128
tp129
a((F0.1
g36
g10
I50
I80
tp130
(F-18934.4680304871
tp131
tp132
a((F0.1
g6
g10
I50
I40
tp133
(F-19056.724716685785
tp134
tp135
a((F0.1
g36
g10
I50
I20
tp136
(F-19010.331213191494
tp137
tp138
a((F0.1
g36
g17
I150
I40
tp139
(F-169817.27496583463
tp140
tp141
a((F0.3
g36
g10
I100
I40
tp142
(F-75630.4062595248
tp143
tp144
a((F0.5
g1
g17
I50
I80
tp145
(F-18991.764800406832
tp146
tp147
a((F0.3
g6
g17
I50
I20
tp148
(F-18975.495421127114
tp149
tp150
a((F0.1
g6
g17
I100
I40
tp151
(F-76050.85418697816
tp152
tp153
a((F0.1
g6
g2
I150
I20
tp154
(F-169933.5538617778
tp155
tp156
a.