(lp0
((F0.5
S'TwoPoint'
p1
S'dominanceRank'
p2
I50
I80
tp3
(F-9999.976921819605
tp4
tp5
a((F0.1
S'singlePoint'
p6
g2
I100
I20
tp7
(F-39999.648918047504
tp8
tp9
a((F0.3
S'uniform'
p10
g2
I50
I20
tp11
(F-9999.976921819605
tp12
tp13
a((F0.3
g6
S'continuousDominanceLoss'
p14
I150
I80
tp15
(F-89999.02787394299
tp16
tp17
a((F0.1
g1
S'dominanceCount'
p18
I50
I20
tp19
(F-9999.976921819605
tp20
tp21
a((F0.5
g1
g14
I100
I20
tp22
(F-39999.648918047504
tp23
tp24
a((F0.1
g1
g2
I100
I40
tp25
(F-39999.648918047504
tp26
tp27
a((F0.5
g10
g18
I150
I80
tp28
(F-89999.02787394298
tp29
tp30
a((F0.1
g1
g18
I50
I80
tp31
(F-9999.976921819605
tp32
tp33
a((F0.5
g1
g14
I50
I40
tp34
(F-9999.976921819605
tp35
tp36
a((F0.5
g6
g2
I100
I80
tp37
(F-39999.648918047504
tp38
tp39
a((F0.5
g6
g2
I100
I20
tp40
(F-39999.648918047504
tp41
tp42
a((F0.3
g1
g18
I150
I20
tp43
(F-89999.02787394298
tp44
tp45
a((F0.5
g6
g2
I100
I40
tp46
(F-39999.648918047504
tp47
tp48
a((F0.3
g1
g14
I150
I20
tp49
(F-89999.02787394298
tp50
tp51
a((F0.5
g1
g14
I100
I40
tp52
(F-39999.648918047504
tp53
tp54
a((F0.3
g1
g2
I150
I20
tp55
(F-89999.02787394298
tp56
tp57
a((F0.5
g6
g14
I50
I40
tp58
(F-9999.976921819605
tp59
tp60
a((F0.3
g1
g18
I50
I80
tp61
(F-9999.976921819605
tp62
tp63
a((F0.3
g10
g18
I150
I20
tp64
(F-89999.02787394298
tp65
tp66
a((F0.3
g1
g2
I100
I20
tp67
(F-39999.648918047504
tp68
tp69
a((F0.3
g10
g18
I150
I40
tp70
(F-89999.02787394298
tp71
tp72
a((F0.1
g10
g14
I100
I40
tp73
(F-39999.648918047504
tp74
tp75
a((F0.1
g10
g18
I150
I20
tp76
(F-89999.02787394298
tp77
tp78
a((F0.1
g6
g18
I150
I40
tp79
(F-89999.02787394298
tp80
tp81
a((F0.1
g1
g18
I150
I40
tp82
(F-89999.02787394298
tp83
tp84
a((F0.1
g1
g18
I100
I40
tp85
(F-39999.648918047504
tp86
tp87
a((F0.3
g6
g14
I100
I40
tp88
(F-39999.648918047504
tp89
tp90
a((F0.1
g1
g2
I100
I20
tp91
(F-39999.648918047504
tp92
tp93
a((F0.1
g10
g18
I50
I80
tp94
(F-9999.976921819605
tp95
tp96
a((F0.3
g6
g14
I150
I20
tp97
(F-89959.23977443471
tp98
tp99
a((F0.1
g10
g18
I150
I80
tp100
(F-89999.02787394298
tp101
tp102
a((F0.1
g1
g14
I150
I40
tp103
(F-89999.02787394298
tp104
tp105
a((F0.3
g10
g2
I50
I40
tp106
(F-9999.976921819605
tp107
tp108
a((F0.1
g6
g2
I50
I20
tp109
(F-9999.976921819605
tp110
tp111
a((F0.3
g10
g14
I50
I80
tp112
(F-9999.976921819605
tp113
tp114
a((F0.1
g10
g2
I150
I80
tp115
(F-89999.02787394298
tp116
tp117
a((F0.5
g10
g14
I100
I40
tp118
(F-39999.648918047504
tp119
tp120
a((F0.5
g6
g18
I150
I40
tp121
(F-89999.02787394298
tp122
tp123
a((F0.1
g1
g18
I150
I20
tp124
(F-89999.02787394298
tp125
tp126
a((F0.5
g1
g2
I150
I40
tp127
(F-89999.02787394298
tp128
tp129
a((F0.1
g6
g2
I50
I80
tp130
(F-9999.976921819605
tp131
tp132
a((F0.3
g6
g14
I100
I20
tp133
(F-39999.648918047504
tp134
tp135
a((F0.5
g10
g18
I150
I20
tp136
(F-89999.02787394298
tp137
tp138
a((F0.3
g10
g14
I50
I20
tp139
(F-9999.976921819605
tp140
tp141
a((F0.5
g1
g2
I150
I80
tp142
(F-89999.02787394298
tp143
tp144
a((F0.3
g6
g2
I150
I20
tp145
(F-89999.02787394298
tp146
tp147
a((F0.1
g6
g14
I100
I80
tp148
(F-39999.648918047504
tp149
tp150
a((F0.3
g1
g14
I100
I20
tp151
(F-39999.648918047504
tp152
tp153
a((F0.5
g10
g18
I50
I20
tp154
(F-9999.976921819605
tp155
tp156
a.