(lp0
((F0.3
S'TwoPoint'
p1
S'continuousDominanceLoss'
p2
I50
I20
tp3
(F-9758.609440674822
tp4
tp5
a((F0.3
g1
S'dominanceCount'
p6
I50
I40
tp7
(F-9758.609440260843
tp8
tp9
a((F0.3
S'uniform'
p10
S'dominanceRank'
p11
I50
I20
tp12
(F-9758.60944026189
tp13
tp14
a((F0.1
g10
g2
I50
I40
tp15
(F-9761.802126710721
tp16
tp17
a((F0.5
g1
g11
I50
I80
tp18
(F-9758.609440263004
tp19
tp20
a((F0.3
g10
g2
I150
I40
tp21
(F-88625.8589755554
tp22
tp23
a((F0.3
g10
g2
I150
I20
tp24
(F-88625.85897556621
tp25
tp26
a((F0.5
S'singlePoint'
p27
g2
I150
I40
tp28
(F-88625.85897569155
tp29
tp30
a((F0.3
g10
g2
I50
I40
tp31
(F-9761.802126710856
tp32
tp33
a((F0.1
g27
g6
I50
I20
tp34
(F-9737.349985194027
tp35
tp36
a((F0.5
g1
g11
I100
I20
tp37
(F-39309.94720121887
tp38
tp39
a((F0.3
g1
g2
I150
I20
tp40
(F-88625.85897619512
tp41
tp42
a((F0.5
g10
g6
I150
I20
tp43
(F-88644.21405017514
tp44
tp45
a((F0.5
g1
g11
I150
I20
tp46
(F-88625.85906734229
tp47
tp48
a((F0.3
g1
g11
I150
I80
tp49
(F-88644.21404831532
tp50
tp51
a((F0.1
g27
g11
I150
I40
tp52
(F-88625.85897555543
tp53
tp54
a((F0.5
g1
g6
I150
I20
tp55
(F-88625.85904124832
tp56
tp57
a((F0.5
g1
g2
I100
I20
tp58
(F-39300.65863917999
tp59
tp60
a((F0.3
g10
g6
I100
I80
tp61
(F-39300.65862168924
tp62
tp63
a((F0.5
g10
g11
I50
I20
tp64
(F-9761.802131394277
tp65
tp66
a((F0.3
g10
g6
I50
I40
tp67
(F-9758.60944026072
tp68
tp69
a((F0.3
g27
g6
I150
I20
tp70
(F-88625.85897601185
tp71
tp72
a((F0.5
g27
g6
I150
I20
tp73
(F-88625.85905004077
tp74
tp75
a((F0.5
g27
g2
I150
I40
tp76
(F-88625.85897569155
tp77
tp78
a((F0.5
g1
g6
I50
I80
tp79
(F-9758.609440260758
tp80
tp81
a((F0.3
g10
g11
I100
I20
tp82
(F-39300.658621765746
tp83
tp84
a((F0.1
g27
g6
I100
I40
tp85
(F-39300.65862168947
tp86
tp87
a((F0.3
g1
g2
I150
I20
tp88
(F-88625.85897619512
tp89
tp90
a((F0.3
g1
g11
I150
I20
tp91
(F-88625.85897684313
tp92
tp93
a((F0.3
g1
g2
I50
I40
tp94
(F-9758.609440260745
tp95
tp96
a((F0.3
g27
g6
I150
I20
tp97
(F-88625.85897601185
tp98
tp99
a((F0.5
g27
g11
I50
I20
tp100
(F-9758.609444122842
tp101
tp102
a((F0.5
g10
g2
I100
I40
tp103
(F-39309.947010147574
tp104
tp105
a((F0.3
g10
g2
I50
I20
tp106
(F-9761.802126719334
tp107
tp108
a((F0.5
g27
g6
I50
I20
tp109
(F-9758.60944374535
tp110
tp111
a((F0.5
g10
g11
I150
I40
tp112
(F-88625.85897557129
tp113
tp114
a((F0.5
g27
g11
I150
I40
tp115
(F-88644.21404865761
tp116
tp117
a((F0.1
g27
g2
I150
I80
tp118
(F-88625.8589755554
tp119
tp120
a((F0.3
g1
g2
I100
I80
tp121
(F-39309.947010097574
tp122
tp123
a((F0.5
g10
g11
I150
I80
tp124
(F-88625.8589755554
tp125
tp126
a((F0.3
g10
g6
I100
I40
tp127
(F-39300.65862168924
tp128
tp129
a((F0.5
g1
g6
I100
I20
tp130
(F-39300.658704120826
tp131
tp132
a((F0.5
g27
g6
I150
I80
tp133
(F-88625.85897555543
tp134
tp135
a((F0.1
g27
g6
I150
I20
tp136
(F-88625.85897562695
tp137
tp138
a((F0.1
g10
g2
I150
I40
tp139
(F-88644.21404831533
tp140
tp141
a((F0.1
g27
g11
I150
I20
tp142
(F-88625.85897585892
tp143
tp144
a((F0.3
g10
g6
I150
I20
tp145
(F-88644.21404834773
tp146
tp147
a((F0.5
g1
g2
I150
I20
tp148
(F-88644.21431864524
tp149
tp150
a((F0.1
g1
g2
I150
I20
tp151
(F-88625.85897565776
tp152
tp153
a((F0.5
g10
g6
I50
I20
tp154
(F-9758.609445082337
tp155
tp156
a.