(lp0
(F0.7833118999229224
F0.004498107102242077
F0.36861333812688746
F0.20692656941534515
F0.2869734694161804
F0.5636103250087477
F0.8194517966619584
F0.29917576091751297
F0.8427151311413015
F0.878095137885548
tp1
a(F0.852536341861777
F0.057794255192688104
F0.5327836949863131
F0.36479296582994036
F0.48801224549597866
F0.159572928203077
F0.10795887739183263
F0.72250461668525
F0.6391637650668242
F0.5248390289771041
tp2
a(F0.24730268136612998
F0.5994750637617176
F0.3041679310067098
F0.0579267040128697
F0.7218277742302577
F0.21848960400762485
F0.7375348021597427
F0.4839816449204608
F0.5395809848858527
F0.3114480003704101
tp3
a(F0.48326193818351837
F0.8201819363383317
F0.4966570247164145
F0.853572685013663
F0.6609908073754641
F0.8330826031135319
F0.6593707376042557
F0.05710174308170557
F0.513665931416214
F0.38730241602637727
tp4
a(F0.4007868041133772
F0.35599531678336727
F0.9611178752108308
F0.6134342739230948
F0.6961984553328825
F0.7301217018419092
F0.05420812057992197
F0.7923186284109733
F0.5486023608431178
F0.09045537466397724
tp5
a(F0.5327521063432846
F0.47556987363201275
F0.4612033516917269
F0.12958072958429412
F0.5815254419071669
F0.6482440622855011
F0.3428498755548597
F0.3406253441874909
F0.35234231757998935
F0.22362800444524011
tp6
a(F0.7916283517642221
F0.8148105081212049
F0.6371773234662039
F0.8327864906573575
F0.7533333196270678
F0.5416505176384532
F0.9832252011024424
F0.8999453534196828
F0.44228318466761785
F0.4899584279651388
tp7
a(F0.24523233349299844
F0.7151879561404277
F0.40465466230903435
F0.6306672546283331
F0.7905903989211694
F0.8531787504756341
F0.315822526104798
F0.8015826945570044
F0.5493738683298999
F0.5044352846476141
tp8
a(F0.6017022865063275
F0.12142564011187029
F0.28839236234612287
F0.7488835167629977
F0.24830314830083156
F0.6555916651708765
F0.3060875464933186
F0.7590090411848861
F0.6752482656271984
F0.44105034998990633
tp9
a(F0.6741699629280141
F0.2819849951090604
F0.7132145214633495
F0.21016567810925924
F0.4148449892387035
F0.9259799866689948
F0.0979088134015973
F0.31445674834984605
F0.250221236206027
F0.1476976500789181
tp10
a(F0.6047139388583378
F0.9983270296707005
F0.3437506899609034
F0.36755835711051166
F0.5801843564316944
F0.6422803567442638
F0.4885887217561903
F0.20843552725846237
F0.5956654880622853
F0.5828818055787234
tp11
a(F0.18022347848928566
F0.9618234429961819
F0.40836076622261097
F0.6035318931369964
F0.053015029507184175
F0.6114144383717318
F0.2827283070560428
F0.8391856906457936
F0.8990314305909877
F0.5902999005295296
tp12
a(F0.294513480215964
F0.5901048377431248
F0.4420776577662231
F0.04773037668535596
F0.08649010473035723
F0.7157167588587701
F0.4452705278408019
F0.9442495852614048
F0.5879520413795507
F0.8731991234702587
tp13
a(F0.30645008500672355
F0.20714989243931292
F0.46868164390769484
F0.5092485097608598
F0.6243037049413347
F0.8132408817042444
F0.4886626850403165
F0.9330394486789275
F0.7527374221254479
F0.4774206666433073
tp14
a(F0.7899890138512694
F0.02882133106587348
F0.052679193467577656
F0.7074454936107758
F0.6709519785100251
F0.38443185623936615
F0.6558503420032382
F0.9259890851522574
F0.7459022897205432
F0.016644674672473436
tp15
a(F0.26575207089440855
F0.7655822887819393
F0.11320526336920012
F0.9873741970674597
F0.17262748841117004
F0.14736128080625488
F0.32781181048392083
F0.2884277289178555
F0.12514796117650417
F0.38964656123258534
tp16
a(F0.9395843340954619
F0.6696080290257577
F0.40349647462620375
F0.8944906089390957
F0.8968138038045075
F0.3060137468998476
F0.033843571287648366
F0.5989942227663382
F0.9381418225081082
F0.3215204188119839
tp17
a(F0.33169305874998234
F0.8419445325707554
F0.18584689729184156
F0.36411175443110655
F0.5593063372205668
F0.4657095541495351
F0.5912111942253971
F0.14833161599153977
F0.9848534263440694
F0.2729053946739286
tp18
a(F0.9572206477265776
F0.3435229114213224
F0.40447823011475836
F0.43925066808121327
F0.6201484555356338
F0.4839182148135528
F0.32231033313249036
F0.33986911350210014
F0.34217010024875627
F0.5590148100738374
tp19
a(F0.05261539990098907
F0.21078157260717534
F0.2559291207628045
F0.4061920097670598
F0.4409821999895336
F0.43237379299653866
F0.6031406948872744
F0.9039025168532957
F0.7377409008098291
F0.6304907279642987
tp20
a(F0.38690255642475313
F0.3957536186879713
F0.7502494357431057
F0.4060970129531537
F0.9364099959957833
F0.5349988784071491
F0.32538723919957946
F0.09665685710029936
F0.8474807826968874
F0.6906909783349502
tp21
a(F0.8809788692122876
F0.1402582048671407
F0.7452443813838314
F0.38059650950447743
F0.9512681169215154
F0.6965139699463313
F0.5605829383875325
F0.5108807311203049
F0.647392723658548
F0.0904588100071465
tp22
a(F0.08859443923149168
F0.3853338822091067
F0.7323827262325118
F0.6249446921257914
F0.5958457553971307
F0.5262837312139039
F0.04047527918040794
F0.7604572649723443
F0.6879266304460494
F0.5458957849150062
tp23
a(F0.44189166365819743
F0.7542969951198316
F0.23136063358639913
F0.49012078374563495
F0.8507134439339585
F0.8160333412105546
F0.16898867029605502
F0.9237459660362
F0.31621935110210697
F0.44742523309013515
tp24
a(F0.6367419263068069
F0.030422114872092343
F0.12518329905060765
F0.422399153484569
F0.003136804258396353
F0.3020147218331535
F0.12246861068005455
F0.606086696562816
F0.5365241307196416
F0.10352138465977301
tp25
a(F0.28465407402450504
F0.5369025698682187
F0.976528781794414
F0.5463223506879066
F0.7074719347363021
F0.21668913327682193
F0.5356812874588455
F0.9753913082693253
F0.2289784414478897
F0.5628156605772939
tp26
a(F0.12699536256659516
F0.3395632749124712
F0.7869166512686676
F0.05053595265339794
F0.23449089146270163
F0.5188444549271287
F0.5030396974966953
F0.10571695969935802
F0.7344239351239129
F0.6773748344592879
tp27
a(F0.5481369097770052
F0.9605517949533117
F0.8059162615775435
F0.10402703167550986
F0.8479484511884584
F0.9827018495700153
F0.9050049091724778
F0.42344369380152136
F0.744899218330198
F0.35667064212383737
tp28
a(F0.6451312498208519
F0.07419739890958421
F0.8311420736475699
F0.19475182724388584
F0.9347667163098793
F0.09051201805806974
F0.8476938102458987
F0.5549922574377393
F0.6374275462862095
F0.21484500588895405
tp29
a(F0.9703437292871704
F0.27020645939311316
F0.6331603892957502
F0.748385260993271
F0.863197645390919
F0.5790807471784737
F0.5023500659294328
F0.612448507073689
F0.21772909074063507
F0.022003681509344064
tp30
a(F0.9215368323420958
F0.11244515682169254
F0.15325050403939577
F0.48834831850780147
F0.2808311599981833
F0.38857235168466164
F0.9283026400597643
F0.38813770464498787
F0.37743063396924037
F0.5513699469001985
tp31
a(F0.2367668309916804
F0.3201907787323054
F0.5501594539865198
F0.17352496767724312
F0.9285559979306609
F0.922372876187858
F0.19158553356301267
F0.21676172721329556
F0.9579899050346354
F0.8694113135591572
tp32
a(F0.8283517207488603
F0.3169324467388458
F0.03182755729360576
F0.609975785028589
F0.004908674459351281
F0.8542799489343436
F0.8547489573982358
F0.9034828542262454
F0.1643640883970151
F0.7563860789617389
tp33
a(F0.21750177560113382
F0.5147861846671289
F0.8129230576824545
F0.49987719840884137
F0.02214241488829527
F0.5669373141623617
F0.6225401247225122
F0.515689513764498
F0.956610978207747
F0.6118981259463844
tp34
a(F0.6615214733647611
F0.33329769941966525
F0.9966132138311277
F0.04412100358024729
F0.8976892539179178
F0.5841220791861269
F0.18903407813324447
F0.9048026126286558
F0.9502294688493973
F0.4529244242329096
tp35
a(F0.8742727082959452
F0.10588111538419431
F0.08457832158779455
F0.19796850052102766
F0.12487639024381536
F0.10822401676899529
F0.45071937093927794
F0.6112661749789987
F0.8370131450627777
F0.6286447141673792
tp36
a(F0.03954689040444759
F0.89424236338224
F0.6947346705478259
F0.5955639720057977
F0.7070367611350948
F0.28099279519909093
F0.39762629423962204
F0.005887872622923229
F0.7898334934782227
F0.03664768290343101
tp37
a(F0.5605761289543191
F0.4275618127995816
F0.3488774883533913
F0.07754904914632443
F0.8545173810304254
F0.07147648346933266
F0.31481934637473286
F0.4343240687529517
F0.33209032238385117
F0.7924153309078814
tp38
a(F0.5257966487881655
F0.7436040294216049
F0.7121561790148095
F0.5126996644188936
F0.6480424008053598
F0.059370521410229915
F0.7378042229075213
F0.9893466903700772
F0.6543883175749707
F0.9786290032435583
tp39
a(F0.2724068605357731
F0.5301892493483543
F0.4788444796675968
F0.9855926139992863
F0.8156211111906925
F0.4527289534103446
F0.8672342930444825
F0.20667727547865056
F0.8426378334456616
F0.8258468352337223
tp40
a(F0.7469954389254196
F0.8277274909348283
F0.4122724125907271
F0.8452084554942454
F0.7953241673038434
F0.5997805539451916
F0.992487472302246
F0.1817893392174439
F0.7123309254005947
F0.83714871267197
tp41
a(F0.8823230558801497
F0.08786542682778442
F0.738259296103868
F0.7607477516042075
F0.42448252900283157
F0.5144722376013737
F0.8841694032827904
F0.6406323201694042
F0.7432497198946398
F0.2788032367620653
tp42
a(F0.9674984152943142
F0.26069571581833484
F0.3833741899297244
F0.2838613509937399
F0.4501577205769134
F0.8669238422390687
F0.2909948206209927
F0.07778972725576572
F0.8376829982228351
F0.25302403060595136
tp43
a(F0.9153146961565045
F0.03289933336566642
F0.833261089881666
F0.4709519607722419
F0.9301651736219742
F0.4828199757152053
F0.3150113246068852
F0.8173960986119994
F0.3508463350667087
F0.008105451567496758
tp44
a(F0.9158847080363336
F0.39192070402183676
F0.08515504326957679
F0.9876823808340169
F0.953166348230576
F0.48802603946445755
F0.028928826367508376
F0.7126628642818361
F0.35366356085298956
F0.15885990021298912
tp45
a(F0.619407608854595
F0.047954691683396944
F0.1746916793191544
F0.09937028155429095
F0.27636884894484426
F0.45903289102678235
F0.4748138418806318
F0.27105348813577446
F0.69268988845245
F0.8491078591796309
tp46
a(F0.23540897022909668
F0.18702923656383486
F0.7518967811270311
F0.49323637579415747
F0.07743044484746076
F0.6778050851735643
F0.4277983196778353
F0.00738627618369514
F0.4019469605094904
F0.8525782336916231
tp47
a(F0.06913145070797899
F0.2587218011930398
F0.09980132705565281
F0.7648466201285016
F0.2898450379884887
F0.3500127395972723
F0.11348556446848135
F0.1386192154232565
F0.8774880354772627
F0.39912146332697485
tp48
a(F0.10446183082382121
F0.5814332661746917
F0.2613449640629233
F0.7240058617159476
F0.05896974089415585
F0.02094659999957671
F0.35713051947124674
F0.4564019193095351
F0.6770963351224654
F0.25098547289607487
tp49
a(F0.5072465837839327
F0.7635059556486427
F0.5349594194422747
F0.1616299866062899
F0.33898467399579857
F0.44524687368155
F0.3827822822081992
F0.23034784061592672
F0.4381219345510031
F0.8826567815446282
tp50
a(F0.219554183821001
F0.3194365788069269
F0.6364813827302861
F0.21478255045104455
F0.7578365819467011
F0.8244984471917607
F0.09354894515096013
F0.14462399914048285
F0.17415224168574073
F0.5230578753930504
tp51
a(F0.8008712469257308
F0.8736428243108758
F0.9598322015536269
F0.194828989285722
F0.7559243084819622
F0.9128431819586135
F0.01793579724378458
F0.23639675380832526
F0.23450028721965266
F0.9222120949479343
tp52
a(F0.37028737450051563
F0.5003441558975182
F0.11278927129711658
F0.3332880670134062
F0.9886905456178047
F0.003932778148706295
F0.03055695776584577
F0.3440808417407737
F0.49730365711206725
F0.7473077169075236
tp53
a(F0.7756822962609253
F0.8536032381897665
F0.5002961856308712
F0.11884672672936081
F0.9761711334198259
F0.40408378755912844
F0.12294796092051874
F0.7711114574315129
F0.6871688872508214
F0.07125316198490272
tp54
a(F0.27448747928958817
F0.21794923535740318
F0.40765713271462467
F0.2935131721355111
F0.8775823521482142
F0.352880520093136
F0.4998413299340059
F0.8700687578924383
F0.4495171636984713
F0.18565089982497318
tp55
a(F0.7788323986737619
F0.1869316091035973
F0.14366113845148465
F0.018800218690279147
F0.5893998235867388
F0.31177690452940976
F0.6300775632893235
F0.9666530702672692
F0.17236505544002068
F0.45548606372032985
tp56
a(F0.39571995500167056
F0.3686816627378319
F0.25437989974008446
F0.27666790771856753
F0.483525338381969
F0.7310803328947695
F0.543801786744979
F0.7885287511587107
F0.6226400505857673
F0.8710604686874225
tp57
a(F0.35906967203004436
F0.46691381607414817
F0.9420102464372355
F0.15537544886614585
F0.5602834012879401
F0.2633872994010398
F0.0179597126719796
F0.10307041527051142
F0.3797271996138901
F0.1275991774195001
tp58
a(F0.7628098845051638
F0.16238103795625525
F0.04611544292434544
F0.5574903428485147
F0.7469250491455635
F0.47451438903385734
F0.662393175575931
F0.6314513432785925
F0.5566183461067155
F0.18903714002467153
tp59
a(F0.12495128840512071
F0.4444808188667051
F0.3923808745389148
F0.8937710825241628
F0.8814774208000343
F0.29179843993920607
F0.01536410379842279
F0.49377638031390914
F0.5297529179844095
F0.8752829696870458
tp60
a(F0.43996312386669323
F0.5494856471776468
F0.5207071795974925
F0.37475074057910607
F0.6528278012791264
F0.460087855234914
F0.6808461937181568
F0.9521698490204905
F0.44430262294057155
F0.33406968784983215
tp61
a(F0.2325564831836907
F0.057881302707228466
F0.2341035186595506
F0.8481142624526119
F0.8579276259061802
F0.2794093852805605
F0.9617649105600429
F0.7044323873623681
F0.5136229281430402
F0.5578972254226545
tp62
a(F0.03841239602004942
F0.33503369924995974
F0.9318052127190672
F0.8143324128055571
F0.5824805886173309
F0.7931550807738931
F0.6523337831003932
F0.02600813945521363
F0.8466859551023554
F0.7452297075105615
tp63
a(F0.08677707414946423
F0.6633909207090196
F0.6809912998214928
F0.7183060485202019
F0.3486375194274193
F0.7222968039834063
F0.5709414274796655
F0.8129779185457381
F0.7087906013446261
F0.24419600183703927
tp64
a(F0.8810529013384009
F0.7947228165024961
F0.12410405093362165
F0.321550630417042
F0.4911919914074401
F0.21549887241570875
F0.968849310189486
F0.4274850314025691
F0.6345678914091524
F0.02729555741515166
tp65
a(F0.28143731809233064
F0.8263071995496156
F0.8574737199204612
F0.42986618835112733
F0.32537492619533137
F0.4944631774085909
F0.36415131392952405
F0.1210680018022865
F0.9840988253572691
F0.8604077398375993
tp66
a(F0.29717028572123183
F0.5704196659246761
F0.7610694525381789
F0.6879113696895579
F0.48562182703679124
F0.030447861028461753
F0.03647801110184479
F0.01473541883582985
F0.11357902612112081
F0.5248335282551151
tp67
a(F0.13520964867620167
F0.9679470962648228
F0.07438141655213426
F0.5725331174247186
F0.7197690188637165
F0.5977078214934578
F0.08428009347265353
F0.9854370607987716
F0.812541340828487
F0.8740450001947688
tp68
a(F0.5287392949700089
F0.49220822142057574
F0.29460919781410266
F0.709038887196572
F0.618568945409736
F0.2829371626629831
F0.6980117544281699
F0.42850169447857744
F0.6062481479550718
F0.27730009433920766
tp69
a(F0.7231855451546437
F0.12750756934275964
F0.5452225090532955
F0.2045898821314146
F0.12104068314043082
F0.2885892475815599
F0.4002156903840556
F0.562639197577081
F0.9918545557282334
F0.05309655627818766
tp70
a(F0.8050236397628856
F0.49760557430528096
F0.6528665569849943
F0.6320148774943853
F0.39226394842676693
F0.31905230115326455
F0.8442624585728389
F0.8283134607724992
F0.05096035751000516
F0.6061950596929728
tp71
a(F0.11547409306897738
F0.9505177998038442
F0.16752142764636258
F0.9662033442801604
F0.17012091074314117
F0.03877194550065677
F0.040681551951170625
F0.9258135962415063
F0.48842086640210325
F0.10017829116614263
tp72
a(F0.5850745192289305
F0.18911531989286035
F0.9790048142587472
F0.9393888760976579
F0.48813131749919136
F0.541854033116869
F0.05623713340616521
F0.31465854091380396
F0.713938013538463
F0.9668953289666634
tp73
a(F0.37920378491986817
F0.21360332157911854
F0.8433673352626044
F0.48860366188161186
F0.37028626421948185
F0.39562265046309975
F0.693196650540598
F0.8802983653912303
F0.20900842184717605
F0.10401548283586104
tp74
a(F0.7248908072236733
F0.15032363175181185
F0.7907494634428415
F0.7785528438157222
F0.6976647728686974
F0.8655938915274416
F0.3123757608778026
F0.1186279159649315
F0.45189725905852607
F0.8825593023879797
tp75
a(F0.4711691209537475
F0.5538508244096717
F0.25607750278285235
F0.34658315713535814
F0.6199678672412745
F0.8408457203168576
F0.2490812587630915
F0.07995160973386561
F0.7342725664662256
F0.9005501813417153
tp76
a(F0.65127216228808
F0.571695015945512
F0.9371714391314188
F0.611109591134081
F0.9292759368659821
F0.9281775200851666
F0.8729720690802428
F0.6368301565304159
F0.827553672215621
F0.5855886714857442
tp77
a(F0.6366158763632703
F0.17053298434478892
F0.6634972240244215
F0.6401643951937935
F0.6586366146075092
F0.4736756386919998
F0.010824741083732436
F0.911073930931935
F0.36998616361112735
F0.24618805104023167
tp78
a(F0.9161890852252115
F0.863959060319096
F0.9398778679591808
F0.6975857112272963
F0.21391590759517431
F0.3112552066703469
F0.9875931612880448
F0.4738749076824067
F0.6193303440952429
F0.5932530438578586
tp79
a(F0.9180211212118745
F0.6020018978974011
F0.6164820580799941
F0.8758887377316977
F0.2100783174962304
F0.1715767048612461
F0.5930720544498438
F0.5534194413541973
F0.7794911034770113
F0.954427543963863
tp80
a(F0.681988160658066
F0.9180691507390383
F0.47260413604433504
F0.18015091355386814
F0.5280840555224144
F0.9968107526317489
F0.3746550770266317
F0.7675237198270927
F0.004150730002204894
F0.7696524082928983
tp81
a(F0.8600714732441782
F0.3486744904290735
F0.3921129057301296
F0.8757743573045798
F0.5014806378632707
F0.376783566245686
F0.7109778740112833
F0.2888834720814615
F0.4196350493073744
F0.06079962031161401
tp82
a(F0.29815737088531646
F0.7608462585082998
F0.8430951846047726
F0.07492381798864445
F0.19978248573798163
F0.2433021179362559
F0.2083474173565737
F0.47812322706211685
F0.284949834577634
F0.5970874135226771
tp83
a(F0.459189365586508
F0.16006912744048973
F0.9782061777308174
F0.23140333488899256
F0.2179721528125509
F0.0322784606642843
F0.7118042028648133
F0.6175502512162921
F0.9760066163877175
F0.22925853719906164
tp84
a(F0.9299810383969443
F0.9083776569481821
F0.8038583669434792
F0.031770629011840135
F0.7292499539733067
F0.9502090915854399
F0.07298763437552014
F0.2902690889612649
F0.11297343472797738
F0.3431238363818694
tp85
a(F0.5415014049117586
F0.3632776818825362
F0.6096038560928841
F0.4246507033177691
F0.4957433639835378
F0.7737541267261184
F0.5950590154851015
F0.36775227521035847
F0.698652817101148
F0.7786000696512291
tp86
a(F0.492684991279571
F0.3383169887660573
F0.004954925278607414
F0.5899584825837197
F0.4531417278074793
F0.13276144580621785
F0.7461926106863961
F0.28759813026851777
F0.6493100430518725
F0.7656248649935986
tp87
a(F0.6572281387491061
F0.6257522368882947
F0.16186731010842192
F0.6843070157512915
F0.22414185698974254
F0.8325532397098353
F0.10930333370345369
F0.37342167754654865
F0.8446608453657081
F0.4837924273995051
tp88
a(F0.500894968107422
F0.5789045519846576
F0.37171755442577314
F0.7635525383139004
F0.5901018250652007
F0.5477446459947647
F0.6707370866971747
F0.08981999330092827
F0.059634455805118614
F0.950056039049581
tp89
a(F0.22903368682634928
F0.4742036667541608
F0.4038986675296561
F0.6701035322853683
F0.9971761238891049
F0.058635263420008465
F0.8132066677128569
F0.07761194828719653
F0.6192699175950506
F0.9074984789304809
tp90
a(F0.142960665886389
F0.6149111160470677
F0.996413047734268
F0.6910449423185929
F0.22158953632566247
F0.6777098159384852
F0.6947920448454237
F0.5321457255150849
F0.9385549911626389
F0.21064032238966646
tp91
a(F0.9946908852874651
F0.43478168658972327
F0.21837265144883133
F0.9544827615599962
F0.034933055280240155
F0.18327480812179775
F0.7743601256012049
F0.7897919435680676
F0.9512565984589436
F0.8848212347429976
tp92
a(F0.7265415053093522
F0.6802319461944188
F0.8365726182662596
F0.07380070304274033
F0.2723952508837082
F0.3720773779804252
F0.27013238278611396
F0.3187520539067239
F0.12925578432802864
F0.44588199238114556
tp93
a(F0.6917849042613341
F0.39424255758064997
F0.33930156016503576
F0.9380368654343499
F0.5263717545454497
F0.050653816471847635
F0.33157200452899116
F0.1874353635558238
F0.9381912334046172
F0.5762697721502525
tp94
a(F0.6012012930907328
F0.5993162260876054
F0.5557593944502124
F0.1163080346979335
F0.6146336029741579
F0.21932592470386758
F0.7944439805892131
F0.44968368366081957
F0.08324299120742473
F0.2768362078109303
tp95
a(F0.30874934686685107
F0.1076599808128691
F0.6758536238394178
F0.35541784365503637
F0.33326543377021
F0.6028804779030001
F0.4419751330943241
F0.5945544416065794
F0.28452230758959174
F0.6811482772730642
tp96
a(F0.6551081542973554
F0.07016283327265416
F0.4816875372037167
F0.2383735211816208
F0.621948785591944
F0.5701678222516854
F0.6648442726134556
F0.0350968975364111
F0.6787328868082582
F0.915210181057934
tp97
a(F0.02421631473012653
F0.9304524233300072
F0.023576243879503744
F0.6473814557129829
F0.9859222084737785
F0.8683617475887401
F0.23250722668725365
F0.04804397339427613
F0.8838940182919702
F0.24466648630711518
tp98
a(F0.7926856249034229
F0.18110054499083383
F0.255635343999967
F0.4316697468105015
F0.5861597207151493
F0.3711054390521499
F0.7862492595497377
F0.3712411393950388
F0.5460055125879428
F0.8957969769575007
tp99
a(F0.3667804419884151
F0.00024213636889403034
F0.6976269142759475
F0.13487444075439214
F0.2113678053392345
F0.3711262121531367
F0.4098352465913798
F0.8524674483923242
F0.031487219507353115
F0.5694720592669347
tp100
a(F0.35113458608014825
F0.5123681385079728
F0.8389253131973051
F0.09470581674542211
F0.18155466195630754
F0.9385420174666801
F0.9415609360382405
F0.5994096533051176
F0.31683536840920545
F0.9197690074520942
tp101
a(F0.2289278778559709
F0.3139343543641634
F0.04871506045777807
F0.34230678559622507
F0.012873926587409157
F0.5427402181563792
F0.43070237263973277
F0.7096102032438831
F0.3284141355328394
F0.43958195570938996
tp102
a(F0.03348706154491243
F0.2755543532526439
F0.5537832249781905
F0.26924744082720875
F0.5728131184408403
F0.08365809260118451
F0.4309520987364094
F0.6277936486670733
F0.4176552792371241
F0.045260786346787096
tp103
a(F0.8442807645163043
F0.06570819036623099
F0.623534519840331
F0.24725988475462102
F0.8446783474722056
F0.20533750428920272
F0.7462736711761484
F0.39731790270469536
F0.6841793335678384
F0.4843950646646701
tp104
a(F0.16058210988317556
F0.5497247887020826
F0.8066704099813808
F0.13978516234292904
F0.026399333477141518
F0.9591564405504189
F0.8314546170102002
F0.13192171833256416
F0.4306529187422564
F0.7907734014279081
tp105
a(F0.9680383195822184
F0.7063418583804016
F0.4577441169184422
F0.9839680670344156
F0.8897157220510371
F0.12663697253122186
F0.41550450569368613
F0.8730310348571664
F0.9021175742083553
F0.4586866414082986
tp106
a(F0.28876018160605743
F0.6964499637372996
F0.5136790776571816
F0.4367501908802338
F0.6358825249259857
F0.07134853139734565
F0.17984948733360973
F0.391982987199054
F0.7434174545815035
F0.768475687380465
tp107
a(F0.4274441978227649
F0.9024843321580642
F0.5658833970420623
F0.10678912666209162
F0.18860245171709467
F0.10826279815607698
F0.04636803217258989
F0.5905189421927298
F0.14614918935375798
F0.02194704192241348
tp108
a(F0.20970342805395625
F0.43319035462752953
F0.8877234983173223
F0.3071003743821924
F0.7706374917489097
F0.7595428290797134
F0.8968733297240338
F0.7252307577395439
F0.11893011614769533
F0.07019417211380086
tp109
a(F0.6322413036708641
F0.46489291268661515
F0.7104146906950687
F0.7147535485637431
F0.763145904582667
F0.20667281469241738
F0.601237501007036
F0.8102536981450625
F0.6830233667569057
F0.6657956708475848
tp110
a(F0.5598337864599053
F0.2571163941670027
F0.889922286678963
F0.9490507457223942
F0.6532802030089148
F0.4372976388041778
F0.01693884863167927
F0.43498475028970696
F0.19806232140491986
F0.10488825315504724
tp111
a(F0.41836475182832733
F0.46957527933690135
F0.0257200663386995
F0.7538620401309859
F0.8536172389962301
F0.4750195092266444
F0.2647571104885258
F0.10219274041111304
F0.660531349759914
F0.5676206658845325
tp112
a(F0.4953320275489731
F0.6387116440822206
F0.7034609357816787
F0.31157810607565606
F0.9371763309352256
F0.4541288490542119
F0.7375191546875782
F0.5500317589754771
F0.08025594497716304
F0.506910431731
tp113
a(F0.5249196035206175
F0.38791201068591563
F0.36217813963256196
F0.9846762743295937
F0.2926311055282934
F0.20541846376603146
F0.4336126618603173
F0.22893725056346648
F0.5884784401035078
F0.38967730704385495
tp114
a(F0.24641526579118733
F0.0693952111957854
F0.36479000453865273
F0.48188948799482
F0.46077208636662725
F0.6682678425169237
F0.6464740628608538
F0.6786240845662523
F0.7474946444054503
F0.10918698000475968
tp115
a(F0.10033400438783424
F0.4742210861727787
F0.1795524615737355
F0.815611383698248
F0.4744977979515894
F0.9684085999782228
F0.7061027316278423
F0.5035654069901256
F0.8659735281254638
F0.6688134794049881
tp116
a(F0.8356246410795968
F0.0506580406608631
F0.18646048472672094
F0.7066212429175956
F0.01547599064091143
F0.08777789695859195
F0.22948532803165156
F0.530006314573324
F0.135121740629348
F0.9518046210649258
tp117
a(F0.6259297290728745
F0.3218511916322162
F0.5221426697125842
F0.6926732598402271
F0.8302053112615723
F0.13120396362075593
F0.5369858474698306
F0.8814408065134145
F0.534480334478236
F0.38534554459414405
tp118
a(F0.021837238995002894
F0.9336935911639632
F0.20700769164535415
F0.9306650265118687
F0.6866895263105349
F0.38855287583079634
F0.5777307414880527
F0.4641400328055971
F0.8481569120529691
F0.7313759456823582
tp119
a(F0.4054873468933382
F0.45326943253701646
F0.6552294913982643
F0.5755830094112939
F0.46874007385600536
F0.28205029764332323
F0.40309498277420297
F0.5864054634891822
F0.12627853902912833
F0.8812234072859184
tp120
a(F0.3413458280250514
F0.22927741766177334
F0.47352006246926504
F0.5405126615869917
F0.4758809114704292
F0.8928957944750515
F0.34594094584187174
F0.6657840844953241
F0.8385067070353418
F0.19052877916332311
tp121
a(F0.43790558406589286
F0.09552878898315031
F0.9909930688103987
F0.4038790049114991
F0.9226412931669938
F0.12334527580629306
F0.48239278275242925
F0.3601519200597807
F0.21731551977958652
F0.3712526763674102
tp122
a(F0.49043643897755307
F0.43776757371815267
F0.29799919196951086
F0.6265259599069927
F0.14403434417698624
F0.4191735899405785
F0.10627131706567872
F0.8711603711386068
F0.5073617954490419
F0.9830524847597817
tp123
a(F0.1762570486653724
F0.9690547105572983
F0.6241881903228892
F0.9640486395918274
F0.9977558289504556
F0.4907112226537348
F0.29716045125417223
F0.752490089709298
F0.6710253689863253
F0.44909747900102825
tp124
a(F0.2847648195689019
F0.9763767309183519
F0.6144414768204853
F0.44801885288520604
F0.04435530931074261
F0.9324045184174912
F0.762123928260312
F0.5069252488386506
F0.6523119339999985
F0.9751654656809823
tp125
a(F0.31076852218409357
F0.5024809706450354
F0.5476050033499618
F0.8897353895802046
F0.6375829241739669
F0.4533651519770625
F0.3920506693318768
F0.3934744077767085
F0.25900577697414007
F0.9486805690716599
tp126
a(F0.9926188954216028
F0.39228670818576894
F0.265587756921156
F0.5693461119899613
F0.7216963195404246
F0.6614143209168732
F0.7904476221618288
F0.08591667768810352
F0.3576888636413813
F0.8926198227848274
tp127
a(F0.9702963183564088
F0.143651208066217
F0.20404817520331786
F0.17237461985854374
F0.7116649892764112
F0.7928007220498252
F0.14215059846648503
F0.10214004733250992
F0.008740391721585916
F0.024743053605898235
tp128
a(F0.011324284901901183
F0.48213516349355867
F0.07118010287887988
F0.015085607430427972
F0.06380351881769619
F0.0750308276397883
F0.16487289314343756
F0.7006482064381667
F0.2616463353148635
F0.5299168238431992
tp129
a(F0.7491993961756545
F0.9892770369856496
F0.8332621825930593
F0.2648968871577587
F0.5497436907998259
F0.3882478361723064
F0.8160842045030972
F0.545601946364851
F0.7065059234520039
F0.3086920271695218
tp130
a(F0.9671404341506723
F0.48941811892872467
F0.40451572801483904
F0.8266235777024955
F0.8263225564942928
F0.5170251262604287
F0.8865397703312089
F0.2628054779107627
F0.37629333182008406
F0.7205191010955542
tp131
a(F0.18344596572988348
F0.5285002797481881
F0.2695668890781171
F0.5617744043455825
F0.914832321304379
F0.17427033701316363
F0.9313355644327761
F0.4982027414365803
F0.17995211815522338
F0.9078960580945077
tp132
a(F0.5367000572815307
F0.9296783655956564
F0.8666146382398962
F0.9037449183620606
F0.838163549339292
F0.8378674815704386
F0.8574731893035203
F0.18514615881228824
F0.23449596129467642
F0.0034991222206665062
tp133
a(F0.38899886092837654
F0.7165716220279841
F0.463303725089814
F0.9946612250571303
F0.9440803783280025
F0.23915761350672227
F0.9747488929256141
F0.26186100693747527
F0.15173400150909755
F0.07456453111764982
tp134
a(F0.7866146606496422
F0.4603990946043305
F0.4454920135257958
F0.7559679382640891
F0.44228316714001414
F0.19254364835566218
F0.2583453075582075
F0.27256558622285354
F0.9440683253693846
F0.4355380183006995
tp135
a(F0.20524457774485572
F0.9128578380972725
F0.9058378682486491
F0.5087465582430504
F0.879164804280764
F0.043336722856217036
F0.20466365640385997
F0.6183277873752772
F0.6441278124718789
F0.9914226646057409
tp136
a(F0.05330047255446024
F0.18004339024997074
F0.8581278560603338
F0.08799846207541007
F0.05029281425665977
F0.035429826247067586
F0.396248473233905
F0.9554161979806892
F0.6980855957161192
F0.2750680610327775
tp137
a(F0.19230999435318674
F0.05791841718402024
F0.3949345112251964
F0.027933685149167164
F0.001345244537218404
F0.09184559686184635
F0.6626185904323901
F0.7210799232994002
F0.7677019610618089
F0.9643405357719202
tp138
a(F0.8826244486674846
F0.6697828394771801
F0.8547087191070712
F0.03683704052206671
F0.08605615193424787
F0.392903034349703
F0.176173423394147
F0.890675005507108
F0.16760787343169958
F0.23467025558588972
tp139
a(F0.9238911895761461
F0.1525457575327308
F0.19274854897553073
F0.2659324234628727
F0.8823677222909785
F0.6633387437791238
F0.4981416395600178
F0.7384726279043634
F0.583867481081577
F0.8334062924140186
tp140
a(F0.7428329107819807
F0.7871172416412348
F0.03559633254192951
F0.663162969750441
F0.1276131748018815
F0.6763538743396166
F0.35013415568041284
F0.8133071908709869
F0.942772600889707
F0.23363351091370754
tp141
a(F0.37493882724933403
F0.34221073079673636
F0.014101907012326054
F0.9124266431770718
F0.24122349508292984
F0.9971435311856319
F0.2887506373208104
F0.28551168203262756
F0.9397068123263499
F0.6909576330809708
tp142
a(F0.5441737719430321
F0.39086085645443536
F0.24892436875192392
F0.9085198919133678
F0.863428145437683
F0.23265277359357817
F0.2569236234063399
F0.46749887056218487
F0.5285819120828518
F0.6877045085470951
tp143
a(F0.5308118876153451
F0.9563079823572743
F0.21342446032073348
F0.21619096962249384
F0.7730544145471459
F0.36926189378091334
F0.5993376965251271
F0.9023411565884009
F0.24088410846775687
F0.4902334381316793
tp144
a(F0.5339547771215996
F0.7036754263312203
F0.7436698670594105
F0.0005995172681939609
F0.1408431648934867
F0.2133607617066141
F0.33433704523315244
F0.16805850484752194
F0.989050270066387
F0.25192052488560135
tp145
a(F0.6012690125467532
F0.23294652520467796
F0.8913528151221143
F0.7050413958131575
F0.7578853512589457
F0.31634562134047306
F0.6072149526870113
F0.46278883098270085
F0.5825110212502574
F0.867152113385346
tp146
a(F0.508330816371568
F0.9743503212975877
F0.6444141840436327
F0.9270412023830292
F0.721295792929841
F0.03623322758026748
F0.5780317799828456
F0.29680467735866545
F0.004070720955862361
F0.5879561600079531
tp147
a(F0.19254618503842602
F0.3685762627264285
F0.6577967709635291
F0.579358773500468
F0.316911835031383
F0.46970877885435125
F0.24499357408807076
F0.9178264182168313
F0.3618508116949497
F0.9481461256784074
tp148
a(F0.5053035786469222
F0.7386089796013398
F0.42058365150332155
F0.7316321319310343
F0.27622160485254
F0.3424452530741371
F0.44465524092056663
F0.4099621468130257
F0.22678609748917677
F0.007092159707071111
tp149
a(F0.9002689334065735
F0.3599082737344552
F0.32932926243162475
F0.5029234603191683
F0.1476543689958184
F0.4995553422214877
F0.2151730566695671
F0.9713960720995484
F0.6944199534110199
F0.9403019661165164
tp150
a(F0.32645922775975555
F0.5316858566874022
F0.6647291493002365
F0.5402086984150491
F0.8084762373155072
F0.6013876033486255
F0.05796142051614783
F0.29226438557232914
F0.7153466583151585
F0.5584621449302327
tp151
a(F0.33046336178157754
F0.15921076242205756
F0.5232197125907423
F0.7722682148963511
F0.7737904287446643
F0.640961311558168
F0.6258783611693762
F0.49123946449123557
F0.686641427301053
F0.4774939355400051
tp152
a(F0.9529024360211642
F0.3771649763427364
F0.4537120820624123
F0.4158792168962313
F0.5916837375780275
F0.7063772410556705
F0.13897278183080464
F0.8176105357535344
F0.8106710239274134
F0.707546395613783
tp153
a(F0.8801392514854663
F0.6194662380067091
F0.8977685631887434
F0.7429708442979716
F0.6527340793395462
F0.7253892263836744
F0.7452597852951115
F0.6731121497236149
F0.10059765129183273
F0.9112412331747168
tp154
a(F0.791615034966016
F0.5562012028998243
F0.7341599459274356
F0.2664481745732361
F0.8917532971415784
F0.8081932817562176
F0.6729610638014412
F0.9459702475259669
F0.6811795841261588
F0.8302816164067159
tp155
a(F0.9580028976104007
F0.5099920617533816
F0.41001626585428497
F0.994330759471597
F0.0895380205564622
F0.36200164165783466
F0.12782162278732534
F0.6054645110698458
F0.6584592263075072
F0.7131862059042181
tp156
a(F0.20588355299769634
F0.5621506638127928
F0.6474119455306507
F0.7091013695458235
F0.9745265543531555
F0.5897727739685683
F0.20248959167201486
F0.9365224352451447
F0.3392886132025328
F0.32109857742642656
tp157
a(F0.7757469794648504
F0.47831557051986007
F0.3955237572530532
F0.81224600922847
F0.5723651501859666
F0.7739236438193028
F0.9420405829137566
F0.22484184546877006
F0.2737484574625878
F0.45480971353777855
tp158
a(F0.9342188526407463
F0.7098354179704782
F0.1790605311466864
F0.19412450906994527
F0.2946785406957023
F0.15997613314493786
F0.173477901890834
F0.2029586063383756
F0.30381755225543683
F0.5565877458431375
tp159
a(F0.7472127196739289
F0.43512655452027016
F0.8971953384941612
F0.584259648762512
F0.5847386530369979
F0.3798569461613641
F0.9056761622891089
F0.3131330528534435
F0.1128255879646276
F0.3923101770802162
tp160
a(F0.47600085769912215
F0.5922933874159093
F0.28676932796547927
F0.9593947425493284
F0.6592241802264769
F0.13556974702458924
F0.41410584019381436
F0.46678172455425193
F0.9551393754360697
F0.33699449869489473
tp161
a(F0.5560633867143998
F0.016316630315727276
F0.7387290131639095
F0.9274637617656888
F0.957931249997443
F0.4471913281719414
F0.4889984539032336
F0.13195911400620353
F0.7854228521350969
F0.9010484269273404
tp162
a(F0.5533292195121574
F0.8267292026747154
F0.7962113980367718
F0.8023583226663572
F0.903098762700145
F0.4354446373783616
F0.9589560184249901
F0.15706236050582878
F0.35975151316363085
F0.1643766659633682
tp163
a(F0.052742356256411216
F0.4574224429423397
F0.6540074175913133
F0.8952713292937516
F0.5727842984404905
F0.9488070668225226
F0.1724095004623596
F0.364797542860153
F0.13840998586668907
F0.23521241959034622
tp164
a(F0.33398274696407015
F0.28572971706767725
F0.9193301284199282
F0.9038015399994659
F0.9425360244522855
F0.9242804577904099
F0.511225039194911
F0.058502559720191916
F0.4215455555088814
F0.7624391860138013
tp165
a(F0.2818022567850097
F0.2885234850106596
F0.7602839134420494
F0.06817273479649688
F0.3582543711706365
F0.4905512802224081
F0.5931983099116965
F0.2709432952527122
F0.6933033884559437
F0.5864387348167458
tp166
a(F0.06335760645807753
F0.16593591728042556
F0.41098504629423127
F0.9068854766205842
F0.3362021827108501
F0.5368516166249379
F0.8393357038771903
F0.5560948574870642
F0.6418561454943295
F0.2833978865310127
tp167
a(F0.16054887333876333
F0.1558978470575696
F0.6235692342127098
F0.10630836252146714
F0.19188732849849677
F0.7537873047857164
F0.8422959739119504
F0.9353990772531463
F0.659280162038945
F0.189631107990353
tp168
a(F0.7652570158774575
F0.1308755886324665
F0.3928920544641197
F0.6081109751091786
F0.33399480101841494
F0.3596807157284355
F0.2693999433249922
F0.9022924785698304
F0.5145984299676533
F0.9757624405609213
tp169
a(F0.550090342760321
F0.1317621881385621
F0.7724561927779521
F0.35761197004602585
F0.1369465718977132
F0.9673384674207522
F0.7908048945181146
F0.4734467683663861
F0.37162810771175836
F0.9045984168307439
tp170
a(F0.2618324718806879
F0.310220241333949
F0.30335824229162023
F0.10147031753083713
F0.22088049244899688
F0.06125644877026959
F0.5603367118419796
F0.894095229152458
F0.3651080343400337
F0.8271894264492123
tp171
a(F0.12346907906613591
F0.9610355628216379
F0.9280906326658828
F0.5771090135467315
F0.6334812077513756
F0.9185992505663445
F0.0527299273598949
F0.12054567083402223
F0.3673059637370134
F0.45715196836404703
tp172
a(F0.5607441011603274
F0.6107195780455885
F0.9649023475413555
F0.25063879028284586
F0.5730990833767773
F0.22447522894206084
F0.8355370627804221
F0.013489294320375267
F0.15312177745213806
F0.44502512282464823
tp173
a(F0.726475679323684
F0.721815727886071
F0.37617836306944197
F0.47407184665754865
F0.42373695593205973
F0.49852503988582364
F0.9420200974289393
F0.19840094215603277
F0.997637883158363
F0.7571879431734085
tp174
a(F0.39831813114375836
F0.6794345182868254
F0.3102098256498804
F0.0793158289851521
F0.6572438090192417
F0.6945931268007103
F0.7967003578983273
F0.27683396235850743
F0.18425342471680572
F0.8856427725587486
tp175
a(F0.7884247735053996
F0.1952073387093386
F0.20969882390269468
F0.28330982726189313
F0.4974002501558892
F0.24129207068742786
F0.8771780639376209
F0.01910674445043037
F0.7556049699351945
F0.4060785708511311
tp176
a(F0.26141875927295466
F0.9567352190797468
F0.09836103066135027
F0.4690919353261458
F0.7934279268918172
F0.09037101103746481
F0.39482472810927793
F0.012236006374189978
F0.3726056379303937
F0.39683598793387964
tp177
a(F0.7597780194313998
F0.29530500500060053
F0.5110878012720484
F0.7194208182340939
F0.8225134398921169
F0.2460117473938429
F0.3742302480625499
F0.8411556277038541
F0.8770585726962639
F0.20932204093103202
tp178
a(F0.3883624120212268
F0.8052676764360004
F0.19468016672125732
F0.08408347593745136
F0.20816364988695824
F0.9905143997248902
F0.03991590265815537
F0.9191366742874387
F0.503320670863473
F0.6877702876821437
tp179
a(F0.44043091669352596
F0.2752481104152732
F0.6711754600813653
F0.6669400632486356
F0.06263334214394434
F0.0008387203697446388
F0.1290732077066722
F0.31934268098229124
F0.6945706182262182
F0.5352856080396196
tp180
a(F0.8512009497123938
F0.7108250382699618
F0.7440689137130453
F0.6922063934722058
F0.21194487814353702
F0.1375291593486052
F0.893960828175553
F0.1899949008951508
F0.7938855954581004
F0.9058952211031126
tp181
a(F0.11819651659188646
F0.7560944125801852
F0.3364155690368029
F0.8392998275186954
F0.5557858822308261
F0.6048616122278828
F0.655052351846616
F0.21345395604700745
F0.27173426992498817
F0.15245087285290404
tp182
a(F0.6194240558883527
F0.42573394373280704
F0.11539281339423901
F0.7029340765480265
F0.5657237180625362
F0.3216427831778573
F0.02819532866771901
F0.1519516293953198
F0.17918733028086964
F0.8509458007229271
tp183
a(F0.6233554098346817
F0.48632118792978185
F0.8063186229878371
F0.7027675547412615
F0.9311608007891649
F0.17998071228466295
F0.6765041768856557
F0.11951098748486488
F0.8938292165671707
F0.7610672020880015
tp184
a(F0.4717827311830448
F0.845998393726891
F0.2881474056683698
F0.8489125440026343
F0.42335885683854546
F0.22568011858068415
F0.2900897306369471
F0.03576685411876146
F0.2818996873591224
F0.9743508264475105
tp185
a(F0.3596974592599078
F0.6685151097496739
F0.3665268555403317
F0.6080877345438047
F0.5015690956466197
F0.5537146004950214
F0.10096570178771325
F0.843332047511247
F0.21205365915593877
F0.2502951307151713
tp186
a(F0.9633054968434664
F0.721284126362647
F0.721170099333322
F0.4546358198913927
F0.015282940776951692
F0.9867193373057219
F0.5973338739004106
F0.5574070447189227
F0.411760708121246
F0.07383090686146676
tp187
a(F0.21805767949940758
F0.16881276814213553
F0.3421666253351614
F0.31071431069946986
F0.5359907632155585
F0.7862122618662194
F0.48421383650319116
F0.24751165360970695
F0.9570170408248411
F0.43212694360274406
tp188
a(F0.8218841910720885
F0.9991912153515147
F0.9009161156467059
F0.896000078803695
F0.8256600668335852
F0.7372256872204911
F0.5282940539397617
F0.3816001229460749
F0.6693218970244208
F0.7843363695257561
tp189
a(F0.10787336568880546
F0.5683360795214268
F0.4457573126274419
F0.28563704172830284
F0.29270914974342654
F0.4814685537262964
F0.2584196568373399
F0.8745566771659703
F0.9918071661201452
F0.28428911047838523
tp190
a(F0.7962621476135627
F0.5605630671689837
F0.8411402642862842
F0.22645865704171897
F0.9490586370042923
F0.02390904757344947
F0.6011706185137777
F0.31673574572824637
F0.34178942068301965
F0.27835571499165135
tp191
a(F0.9372992176840378
F0.17475931287556945
F0.5388480650993852
F0.3069096530730647
F0.8078766167874047
F0.9245089994560172
F0.6355118183338224
F0.5382209552204354
F0.7598318497867246
F0.2727353432195121
tp192
a(F0.8972603100318634
F0.33521399182834133
F0.026531394410462483
F0.44910188519913874
F0.9400936686313385
F0.21361589285182025
F0.19079830654356333
F0.11322832829602825
F0.2734782946724119
F0.556250842313433
tp193
a(F0.5503712261728175
F0.07044350792536136
F0.08087133241039401
F0.2884312844854129
F0.4134823624835472
F0.3043406720768673
F0.6615803655078503
F0.31752046443338455
F0.08770408180738554
F0.543395148347259
tp194
a(F0.7640489054664342
F0.28275086503151614
F0.9772598185250233
F0.45759260818234915
F0.1569843898013361
F0.07038580925472626
F0.002989780709673706
F0.21631992602646855
F0.454692706557033
F0.8040330264990301
tp195
a(F0.3776033142195906
F0.14585795328359918
F0.2626428008166344
F0.10682541677135826
F0.3345247625046508
F0.6765066798792007
F0.18304535738399508
F0.5310843072620722
F0.4885490410280112
F0.3654871632466271
tp196
a(F0.4999337948431508
F0.4634863971200428
F0.345701727259178
F0.12761529920259862
F0.4436512539567531
F0.3820182553815076
F0.4517928687090914
F0.6325257169471037
F0.053068700362468246
F0.12835084831188637
tp197
a(F0.3868179111184611
F0.43868767200880054
F0.7855861759858356
F0.5927717230586451
F0.3103258296145047
F0.13582371715011565
F0.26910595072802246
F0.8930380672061355
F0.42342921452384386
F0.5483286053953637
tp198
a(F0.5459848476840169
F0.20924166386665466
F0.8024630611457323
F0.23004835923228684
F0.23052675138972134
F0.784765224711017
F0.5763779105063396
F0.4925957542200443
F0.8885284713197565
F0.5395672688795099
tp199
a(F0.0037058130110839693
F0.513918752721475
F0.5021881097576152
F0.94295710642229
F0.8613826508848457
F0.10189382373649691
F0.5312078434828947
F0.1866728264344948
F0.4354166976428744
F0.6061641895597741
tp200
a.