(lp0
((F0.1
S'TwoPoint'
p1
S'continuousDominanceLoss'
p2
I100
I40
tp3
(F-19998.0647273223
tp4
tp5
a((F0.5
g1
S'dominanceRank'
p6
I50
I80
tp7
(F-4999.955743851133
tp8
tp9
a((F0.1
g1
S'dominanceCount'
p10
I150
I80
tp11
(F-44997.040483657685
tp12
tp13
a((F0.1
S'uniform'
p14
g10
I150
I40
tp15
(F-44997.040483657685
tp16
tp17
a((F0.1
S'singlePoint'
p18
g10
I150
I40
tp19
(F-44997.040483657685
tp20
tp21
a((F0.5
g1
g2
I150
I20
tp22
(F-44997.040483657685
tp23
tp24
a((F0.3
g1
g6
I100
I80
tp25
(F-19998.0647273223
tp26
tp27
a((F0.5
g14
g2
I50
I20
tp28
(F-4999.955743851133
tp29
tp30
a((F0.1
g1
g6
I50
I80
tp31
(F-4999.955743851133
tp32
tp33
a((F0.5
g18
g6
I100
I80
tp34
(F-19998.0647273223
tp35
tp36
a((F0.5
g1
g2
I150
I40
tp37
(F-44997.04048365769
tp38
tp39
a((F0.3
g18
g10
I150
I20
tp40
(F-44997.040483657685
tp41
tp42
a((F0.5
g1
g10
I100
I40
tp43
(F-19998.0647273223
tp44
tp45
a((F0.5
g14
g2
I100
I80
tp46
(F-19998.0647273223
tp47
tp48
a((F0.5
g14
g6
I100
I20
tp49
(F-19998.0647273223
tp50
tp51
a((F0.1
g18
g6
I100
I40
tp52
(F-19998.0647273223
tp53
tp54
a((F0.3
g18
g6
I50
I80
tp55
(F-4999.955743851133
tp56
tp57
a((F0.3
g14
g10
I150
I20
tp58
(F-44997.040483657685
tp59
tp60
a((F0.1
g18
g6
I150
I20
tp61
(F-44997.040483657685
tp62
tp63
a((F0.3
g14
g10
I100
I80
tp64
(F-19998.0647273223
tp65
tp66
a((F0.3
g1
g2
I50
I80
tp67
(F-4999.955743851133
tp68
tp69
a((F0.3
g14
g2
I100
I40
tp70
(F-19998.0647273223
tp71
tp72
a((F0.1
g14
g6
I150
I40
tp73
(F-44997.040483657685
tp74
tp75
a((F0.1
g14
g2
I150
I40
tp76
(F-44997.040483657685
tp77
tp78
a((F0.3
g1
g10
I100
I80
tp79
(F-19998.0647273223
tp80
tp81
a((F0.3
g18
g2
I100
I40
tp82
(F-19998.0647273223
tp83
tp84
a((F0.5
g1
g10
I100
I80
tp85
(F-19998.0647273223
tp86
tp87
a((F0.1
g1
g6
I100
I40
tp88
(F-19998.0647273223
tp89
tp90
a((F0.5
g18
g2
I150
I20
tp91
(F-44997.040483657685
tp92
tp93
a((F0.1
g18
g6
I150
I20
tp94
(F-44997.040483657685
tp95
tp96
a((F0.3
g14
g2
I50
I80
tp97
(F-4999.955743851133
tp98
tp99
a((F0.5
g14
g6
I150
I40
tp100
(F-44997.040483657685
tp101
tp102
a((F0.5
g18
g10
I150
I40
tp103
(F-44997.040483657685
tp104
tp105
a((F0.1
g1
g6
I150
I80
tp106
(F-44997.040483657685
tp107
tp108
a((F0.1
g1
g2
I150
I80
tp109
(F-44997.040483657685
tp110
tp111
a((F0.5
g18
g6
I50
I40
tp112
(F-4999.955743851133
tp113
tp114
a((F0.5
g18
g2
I100
I40
tp115
(F-19998.0647273223
tp116
tp117
a((F0.1
g1
g10
I150
I20
tp118
(F-44997.040483657685
tp119
tp120
a((F0.5
g18
g10
I100
I20
tp121
(F-19998.0647273223
tp122
tp123
a((F0.5
g18
g6
I50
I80
tp124
(F-4999.955743851133
tp125
tp126
a((F0.5
g1
g6
I150
I40
tp127
(F-44997.040483657685
tp128
tp129
a((F0.1
g18
g6
I50
I80
tp130
(F-4999.955743851133
tp131
tp132
a((F0.3
g18
g6
I50
I40
tp133
(F-4999.955743851133
tp134
tp135
a((F0.5
g14
g10
I150
I20
tp136
(F-44997.040483657685
tp137
tp138
a((F0.3
g14
g2
I150
I20
tp139
(F-44997.040483657685
tp140
tp141
a((F0.5
g1
g10
I50
I80
tp142
(F-4999.955743851133
tp143
tp144
a((F0.3
g18
g10
I150
I80
tp145
(F-44997.040483657685
tp146
tp147
a((F0.1
g1
g10
I50
I40
tp148
(F-4999.955743851133
tp149
tp150
a((F0.1
g18
g2
I150
I20
tp151
(F-44997.040483657685
tp152
tp153
a((F0.1
g1
g2
I150
I20
tp154
(F-44997.040483657685
tp155
tp156
a.