(lp0
((F0.1
S'TwoPoint'
p1
S'continuousDominanceLoss'
p2
I100
I40
tp3
(F-79941.5135969056
tp4
tp5
a((F0.3
g1
g2
I150
I40
tp6
(F-179871.58183107764
tp7
tp8
a((F0.5
S'singlePoint'
p9
S'dominanceCount'
p10
I100
I80
tp11
(F-79930.67278336828
tp12
tp13
a((F0.1
g1
g2
I150
I80
tp14
(F-179847.76520213965
tp15
tp16
a((F0.1
S'uniform'
p17
g10
I100
I20
tp18
(F-79941.51359690556
tp19
tp20
a((F0.3
g9
g2
I150
I40
tp21
(F-179828.59396506858
tp22
tp23
a((F0.3
g1
S'dominanceRank'
p24
I100
I80
tp25
(F-79941.51359690556
tp26
tp27
a((F0.5
g17
g24
I100
I40
tp28
(F-79941.51359690557
tp29
tp30
a((F0.3
g9
g10
I50
I80
tp31
(F-19985.160825051717
tp32
tp33
a((F0.1
g9
g2
I100
I20
tp34
(F-79941.5135969056
tp35
tp36
a((F0.5
g9
g24
I100
I20
tp37
(F-79930.67278341629
tp38
tp39
a((F0.5
g1
g2
I150
I40
tp40
(F-179847.7652021397
tp41
tp42
a((F0.3
g17
g10
I100
I20
tp43
(F-79930.67278336828
tp44
tp45
a((F0.5
g1
g24
I100
I20
tp46
(F-79941.51359691449
tp47
tp48
a((F0.1
g1
g10
I100
I20
tp49
(F-79941.51359690556
tp50
tp51
a((F0.5
g1
g24
I100
I40
tp52
(F-79941.51359690569
tp53
tp54
a((F0.3
g1
g10
I50
I20
tp55
(F-19984.69602295411
tp56
tp57
a((F0.1
g17
g10
I100
I80
tp58
(F-79941.51359690556
tp59
tp60
a((F0.3
g1
g24
I50
I20
tp61
(F-19985.160825051917
tp62
tp63
a((F0.3
g1
g10
I50
I80
tp64
(F-19985.160825051717
tp65
tp66
a((F0.5
g9
g24
I100
I20
tp67
(F-79930.67278341629
tp68
tp69
a((F0.1
g1
g24
I150
I40
tp70
(F-179871.58183107764
tp71
tp72
a((F0.5
g9
g2
I50
I20
tp73
(F-19985.16082505387
tp74
tp75
a((F0.5
g1
g10
I100
I40
tp76
(F-79941.5135969056
tp77
tp78
a((F0.1
g9
g24
I150
I20
tp79
(F-179847.76520213965
tp80
tp81
a((F0.5
g1
g24
I100
I40
tp82
(F-79941.51359690569
tp83
tp84
a((F0.3
g1
g10
I150
I80
tp85
(F-179847.76520213965
tp86
tp87
a((F0.3
g17
g2
I100
I80
tp88
(F-79941.51359690557
tp89
tp90
a((F0.5
g9
g2
I150
I40
tp91
(F-179867.55738850622
tp92
tp93
a((F0.5
g1
g2
I100
I40
tp94
(F-79941.5135969056
tp95
tp96
a((F0.1
g9
g2
I150
I80
tp97
(F-179871.58183107764
tp98
tp99
a((F0.3
g17
g10
I100
I20
tp100
(F-79930.67278336828
tp101
tp102
a((F0.1
g1
g24
I150
I40
tp103
(F-179871.58183107764
tp104
tp105
a((F0.5
g9
g2
I50
I80
tp106
(F-19985.160825051717
tp107
tp108
a((F0.1
g17
g2
I50
I40
tp109
(F-19985.160825051717
tp110
tp111
a((F0.5
g17
g10
I50
I80
tp112
(F-19982.41033787633
tp113
tp114
a((F0.1
g9
g10
I50
I20
tp115
(F-19985.160825051717
tp116
tp117
a((F0.3
g9
g10
I100
I20
tp118
(F-79941.51359690586
tp119
tp120
a((F0.1
g1
g24
I150
I80
tp121
(F-179847.76520213965
tp122
tp123
a((F0.3
g9
g10
I100
I20
tp124
(F-79941.51359690586
tp125
tp126
a((F0.3
g1
g10
I100
I20
tp127
(F-79930.67278336876
tp128
tp129
a((F0.1
g9
g24
I50
I80
tp130
(F-19985.160825051717
tp131
tp132
a((F0.3
g9
g24
I50
I40
tp133
(F-19985.160825051717
tp134
tp135
a((F0.5
g17
g24
I50
I20
tp136
(F-19985.160825052255
tp137
tp138
a((F0.1
g1
g24
I150
I40
tp139
(F-179871.58183107764
tp140
tp141
a((F0.1
g1
g2
I150
I20
tp142
(F-179871.58183107767
tp143
tp144
a((F0.1
g9
g2
I100
I80
tp145
(F-79941.51359690556
tp146
tp147
a((F0.1
g9
g2
I150
I20
tp148
(F-179847.7652021397
tp149
tp150
a((F0.1
g17
g10
I150
I20
tp151
(F-179828.59396506855
tp152
tp153
a((F0.5
g17
g24
I150
I20
tp154
(F-179871.58183115776
tp155
tp156
a.