(lp0
((F0.3
S'TwoPoint'
p1
S'continuousDominanceLoss'
p2
I50
I20
tp3
(F-9963.992639734113
tp4
tp5
a((F0.5
g1
S'dominanceCount'
p6
I150
I80
tp7
(F-89723.86428082248
tp8
tp9
a((F0.1
S'uniform'
p10
g2
I150
I80
tp11
(F-89630.98149848469
tp12
tp13
a((F0.1
g1
g6
I150
I80
tp14
(F-89630.98149848469
tp15
tp16
a((F0.5
S'singlePoint'
p17
g6
I50
I40
tp18
(F-9963.992639659471
tp19
tp20
a((F0.1
g17
S'dominanceRank'
p21
I50
I40
tp22
(F-9963.992639524466
tp23
tp24
a((F0.3
g1
g6
I50
I40
tp25
(F-9963.992639524342
tp26
tp27
a((F0.1
g17
g21
I150
I80
tp28
(F-89723.8642808223
tp29
tp30
a((F0.3
g17
g21
I150
I80
tp31
(F-89723.8642808223
tp32
tp33
a((F0.1
g10
g21
I100
I20
tp34
(F-39893.435003429346
tp35
tp36
a((F0.5
g17
g2
I50
I40
tp37
(F-9963.992639612554
tp38
tp39
a((F0.5
g17
g2
I50
I80
tp40
(F-9963.992639524464
tp41
tp42
a((F0.1
g10
g21
I50
I40
tp43
(F-9963.992639524273
tp44
tp45
a((F0.5
g1
g6
I150
I20
tp46
(F-89723.86433946088
tp47
tp48
a((F0.5
g17
g21
I100
I80
tp49
(F-39893.43500342935
tp50
tp51
a((F0.5
g17
g6
I150
I40
tp52
(F-89723.86428116316
tp53
tp54
a((F0.3
g17
g2
I100
I20
tp55
(F-39893.435003600534
tp56
tp57
a((F0.3
g17
g6
I150
I20
tp58
(F-89723.86428111553
tp59
tp60
a((F0.1
g1
g21
I100
I80
tp61
(F-39893.43500342934
tp62
tp63
a((F0.3
g10
g2
I150
I40
tp64
(F-89723.8642808223
tp65
tp66
a((F0.3
g17
g2
I150
I20
tp67
(F-89723.86428348187
tp68
tp69
a((F0.1
g17
g6
I100
I20
tp70
(F-39893.43500365952
tp71
tp72
a((F0.1
g1
g6
I150
I40
tp73
(F-89723.8642808223
tp74
tp75
a((F0.3
g1
g6
I100
I40
tp76
(F-39893.43500343002
tp77
tp78
a((F0.3
g17
g21
I150
I40
tp79
(F-89723.86428082245
tp80
tp81
a((F0.3
g1
g21
I50
I80
tp82
(F-9963.992639524262
tp83
tp84
a((F0.3
g17
g6
I100
I80
tp85
(F-39893.43500342934
tp86
tp87
a((F0.5
g17
g21
I50
I20
tp88
(F-9963.992653957337
tp89
tp90
a((F0.1
g1
g21
I100
I20
tp91
(F-39893.43500344519
tp92
tp93
a((F0.5
g10
g2
I100
I20
tp94
(F-39893.435023591795
tp95
tp96
a((F0.5
g17
g6
I150
I20
tp97
(F-89723.86431831366
tp98
tp99
a((F0.1
g10
g21
I150
I40
tp100
(F-89723.8642808223
tp101
tp102
a((F0.5
g17
g6
I150
I40
tp103
(F-89723.86428116316
tp104
tp105
a((F0.3
g1
g2
I100
I80
tp106
(F-39893.43500342934
tp107
tp108
a((F0.5
g17
g6
I50
I80
tp109
(F-9963.992639524278
tp110
tp111
a((F0.1
g1
g6
I150
I40
tp112
(F-89723.8642808223
tp113
tp114
a((F0.1
g1
g21
I50
I20
tp115
(F-9963.992639567272
tp116
tp117
a((F0.1
g17
g21
I100
I80
tp118
(F-39893.43500342934
tp119
tp120
a((F0.5
g17
g6
I50
I40
tp121
(F-9963.992639659471
tp122
tp123
a((F0.5
g1
g6
I50
I40
tp124
(F-9963.992639525672
tp125
tp126
a((F0.1
g17
g21
I50
I80
tp127
(F-9963.992639524262
tp128
tp129
a((F0.5
g1
g2
I150
I80
tp130
(F-89723.86428082237
tp131
tp132
a((F0.1
g1
g21
I100
I40
tp133
(F-39893.43500342942
tp134
tp135
a((F0.3
g10
g21
I100
I40
tp136
(F-39893.43500342935
tp137
tp138
a((F0.5
g1
g6
I50
I80
tp139
(F-9963.992639524318
tp140
tp141
a((F0.1
g10
g2
I100
I80
tp142
(F-39893.43500342934
tp143
tp144
a((F0.3
g17
g21
I150
I20
tp145
(F-89723.86428206251
tp146
tp147
a((F0.1
g10
g21
I150
I80
tp148
(F-89723.8642808223
tp149
tp150
a((F0.5
g1
g6
I150
I40
tp151
(F-89723.8642808925
tp152
tp153
a((F0.5
g10
g21
I150
I20
tp154
(F-89723.8643166269
tp155
tp156
a.