(lp0
((F0.5
S'TwoPoint'
p1
S'dominanceCount'
p2
I150
I80
tp3
(F-179968.8131159658
tp4
tp5
a((F0.1
S'singlePoint'
p6
g2
I50
I80
tp7
(F-19996.221139220695
tp8
tp9
a((F0.1
g1
S'dominanceRank'
p10
I50
I80
tp11
(F-19996.221139220695
tp12
tp13
a((F0.1
g6
g10
I100
I20
tp14
(F-79989.31855171233
tp15
tp16
a((F0.1
g6
g2
I150
I40
tp17
(F-179968.8131159658
tp18
tp19
a((F0.3
g6
g2
I150
I80
tp20
(F-179932.6803192714
tp21
tp22
a((F0.3
g6
S'continuousDominanceLoss'
p23
I150
I40
tp24
(F-179968.8131159658
tp25
tp26
a((F0.1
g1
g23
I50
I40
tp27
(F-19996.221139220695
tp28
tp29
a((F0.5
g6
g2
I50
I40
tp30
(F-19996.221139220695
tp31
tp32
a((F0.5
g1
g2
I150
I40
tp33
(F-179968.8131159658
tp34
tp35
a((F0.1
g6
g23
I100
I80
tp36
(F-79989.31855171233
tp37
tp38
a((F0.5
g1
g23
I150
I40
tp39
(F-179968.8131159658
tp40
tp41
a((F0.1
S'uniform'
p42
g23
I150
I20
tp43
(F-179968.8131159658
tp44
tp45
a((F0.1
g1
g2
I100
I20
tp46
(F-79989.31855171233
tp47
tp48
a((F0.5
g6
g10
I100
I40
tp49
(F-79989.31855171235
tp50
tp51
a((F0.1
g1
g23
I100
I20
tp52
(F-79989.31855171238
tp53
tp54
a((F0.1
g42
g23
I100
I40
tp55
(F-79989.31855171238
tp56
tp57
a((F0.3
g42
g2
I150
I80
tp58
(F-179968.8131159658
tp59
tp60
a((F0.3
g1
g10
I150
I80
tp61
(F-179968.8131159658
tp62
tp63
a((F0.3
g42
g10
I100
I40
tp64
(F-79989.31855171233
tp65
tp66
a((F0.1
g1
g10
I150
I40
tp67
(F-179968.8131159658
tp68
tp69
a((F0.5
g6
g2
I100
I20
tp70
(F-79989.31855171538
tp71
tp72
a((F0.1
g42
g2
I150
I20
tp73
(F-179968.8131159658
tp74
tp75
a((F0.5
g6
g2
I50
I20
tp76
(F-19996.221139221347
tp77
tp78
a((F0.5
g6
g10
I100
I20
tp79
(F-79976.95093455396
tp80
tp81
a((F0.3
g6
g23
I50
I80
tp82
(F-19996.221139220695
tp83
tp84
a((F0.5
g1
g10
I100
I80
tp85
(F-79989.31855171233
tp86
tp87
a((F0.3
g6
g2
I50
I40
tp88
(F-19996.221139220695
tp89
tp90
a((F0.5
g6
g10
I150
I80
tp91
(F-179932.6803192714
tp92
tp93
a((F0.5
g1
g23
I100
I40
tp94
(F-79989.31855171235
tp95
tp96
a((F0.1
g42
g2
I150
I80
tp97
(F-179968.8131159658
tp98
tp99
a((F0.3
g6
g2
I100
I40
tp100
(F-79989.31855171233
tp101
tp102
a((F0.3
g42
g2
I150
I40
tp103
(F-179968.8131159658
tp104
tp105
a((F0.1
g6
g2
I100
I20
tp106
(F-79989.31855171233
tp107
tp108
a((F0.3
g1
g2
I150
I20
tp109
(F-179968.8131159658
tp110
tp111
a((F0.1
g6
g2
I100
I40
tp112
(F-79989.31855171233
tp113
tp114
a((F0.5
g42
g10
I150
I40
tp115
(F-179968.8131159658
tp116
tp117
a((F0.3
g6
g10
I150
I40
tp118
(F-179968.8131159658
tp119
tp120
a((F0.3
g42
g10
I100
I80
tp121
(F-79989.31855171233
tp122
tp123
a((F0.5
g42
g10
I150
I80
tp124
(F-179886.57515262358
tp125
tp126
a((F0.1
g1
g2
I150
I40
tp127
(F-179904.09609558232
tp128
tp129
a((F0.5
g6
g2
I100
I20
tp130
(F-79989.31855171538
tp131
tp132
a((F0.1
g1
g10
I50
I40
tp133
(F-19996.221139220695
tp134
tp135
a((F0.5
g6
g10
I50
I80
tp136
(F-19996.221139220695
tp137
tp138
a((F0.1
g6
g10
I50
I80
tp139
(F-19996.221139220695
tp140
tp141
a((F0.3
g6
g2
I150
I40
tp142
(F-179968.8131159658
tp143
tp144
a((F0.1
g6
g10
I50
I20
tp145
(F-19991.850325401665
tp146
tp147
a((F0.1
g1
g10
I150
I40
tp148
(F-179968.8131159658
tp149
tp150
a((F0.3
g6
g10
I150
I20
tp151
(F-179932.68031927143
tp152
tp153
a((F0.1
g42
g10
I100
I80
tp154
(F-79987.64417687168
tp155
tp156
a.