(lp0
((F0.1
S'TwoPoint'
p1
S'continuousDominanceLoss'
p2
I150
I20
tp3
(F-133046.5859860822
tp4
tp5
a((F0.1
S'singlePoint'
p6
g2
I50
I20
tp7
(F-14718.381328914578
tp8
tp9
a((F0.1
g6
g2
I150
I80
tp10
(F-132977.84579903696
tp11
tp12
a((F0.1
g6
S'dominanceCount'
p13
I150
I20
tp14
(F-133006.20977615035
tp15
tp16
a((F0.1
g1
g13
I100
I80
tp17
(F-58971.16354326146
tp18
tp19
a((F0.5
S'uniform'
p20
S'dominanceRank'
p21
I100
I80
tp22
(F-58991.92827403116
tp23
tp24
a((F0.3
g6
g2
I50
I20
tp25
(F-14718.381313756034
tp26
tp27
a((F0.1
g6
g13
I150
I80
tp28
(F-133046.5859718129
tp29
tp30
a((F0.1
g6
g13
I150
I80
tp31
(F-133046.5859718129
tp32
tp33
a((F0.1
g20
g2
I150
I20
tp34
(F-133046.58597182934
tp35
tp36
a((F0.3
g6
g13
I150
I20
tp37
(F-133015.74521573196
tp38
tp39
a((F0.1
g6
g2
I150
I40
tp40
(F-133023.72402122215
tp41
tp42
a((F0.3
g6
g13
I150
I40
tp43
(F-133023.72402145475
tp44
tp45
a((F0.1
g1
g2
I150
I20
tp46
(F-133046.5859860822
tp47
tp48
a((F0.1
g1
g21
I50
I40
tp49
(F-14715.105958421145
tp50
tp51
a((F0.1
g20
g2
I150
I80
tp52
(F-133006.20969871362
tp53
tp54
a((F0.1
g6
g21
I100
I20
tp55
(F-58991.92836656118
tp56
tp57
a((F0.3
g1
g21
I150
I20
tp58
(F-133023.7241669568
tp59
tp60
a((F0.3
g6
g13
I50
I40
tp61
(F-14718.381306410489
tp62
tp63
a((F0.3
g6
g2
I150
I20
tp64
(F-133046.58598370253
tp65
tp66
a((F0.3
g20
g2
I150
I80
tp67
(F-133023.72402111389
tp68
tp69
a((F0.1
g6
g13
I150
I20
tp70
(F-133006.20977615035
tp71
tp72
a((F0.1
g6
g21
I150
I80
tp73
(F-133006.2096987138
tp74
tp75
a((F0.3
g6
g21
I100
I20
tp76
(F-58991.928356529446
tp77
tp78
a((F0.3
g20
g2
I150
I80
tp79
(F-133023.72402111389
tp80
tp81
a((F0.5
g6
g21
I150
I80
tp82
(F-133023.7240229789
tp83
tp84
a((F0.1
g20
g13
I100
I20
tp85
(F-58991.92827370198
tp86
tp87
a((F0.1
g20
g21
I150
I80
tp88
(F-133023.72402111447
tp89
tp90
a((F0.1
g1
g2
I100
I20
tp91
(F-58913.46252433148
tp92
tp93
a((F0.3
g6
g13
I100
I80
tp94
(F-58980.170458662804
tp95
tp96
a((F0.3
g1
g2
I100
I20
tp97
(F-58980.17050656768
tp98
tp99
a((F0.1
g20
g21
I100
I80
tp100
(F-58980.17045865668
tp101
tp102
a((F0.3
g6
g21
I100
I40
tp103
(F-58991.92827372322
tp104
tp105
a((F0.3
g6
g21
I100
I20
tp106
(F-58991.928356529446
tp107
tp108
a((F0.3
g6
g2
I150
I20
tp109
(F-133046.58598370253
tp110
tp111
a((F0.1
g6
g13
I150
I20
tp112
(F-133006.20977615035
tp113
tp114
a((F0.3
g6
g13
I100
I40
tp115
(F-58991.92827683935
tp116
tp117
a((F0.1
g1
g13
I150
I20
tp118
(F-133023.7240417531
tp119
tp120
a((F0.1
g6
g21
I150
I20
tp121
(F-133015.745182146
tp122
tp123
a((F0.1
g1
g21
I150
I40
tp124
(F-133023.72402156025
tp125
tp126
a((F0.1
g6
g13
I150
I80
tp127
(F-133046.5859718129
tp128
tp129
a((F0.1
g1
g13
I50
I80
tp130
(F-14718.381306397707
tp131
tp132
a((F0.3
g6
g21
I100
I20
tp133
(F-58991.928356529446
tp134
tp135
a((F0.1
g20
g2
I150
I20
tp136
(F-133046.58597182934
tp137
tp138
a((F0.1
g1
g21
I150
I20
tp139
(F-133046.58598408758
tp140
tp141
a((F0.1
g1
g13
I150
I40
tp142
(F-133046.5859718629
tp143
tp144
a((F0.3
g6
g13
I150
I20
tp145
(F-133015.74521573196
tp146
tp147
a((F0.1
g6
g2
I50
I20
tp148
(F-14718.381328914578
tp149
tp150
a((F0.5
g1
g21
I100
I80
tp151
(F-58991.92827468837
tp152
tp153
a((F0.1
g20
g13
I50
I20
tp154
(F-14701.364332999821
tp155
tp156
a.