(lp0
((F0.1
S'singlePoint'
p1
S'dominanceCount'
p2
I50
I80
tp3
(F-10000.0
tp4
tp5
a((F0.1
S'TwoPoint'
p6
g2
I150
I80
tp7
(F-90000.0
tp8
tp9
a((F0.1
S'uniform'
p10
S'continuousDominanceLoss'
p11
I50
I40
tp12
(F-10000.0
tp13
tp14
a((F0.1
g6
g11
I100
I80
tp15
(F-40000.0
tp16
tp17
a((F0.3
g1
g11
I100
I80
tp18
(F-40000.0
tp19
tp20
a((F0.3
g1
g11
I150
I40
tp21
(F-90000.0
tp22
tp23
a((F0.1
g6
S'dominanceRank'
p24
I150
I80
tp25
(F-90000.0
tp26
tp27
a((F0.1
g10
g24
I150
I20
tp28
(F-90000.0
tp29
tp30
a((F0.3
g6
g2
I100
I80
tp31
(F-40000.0
tp32
tp33
a((F0.5
g1
g2
I100
I40
tp34
(F-40000.0
tp35
tp36
a((F0.5
g10
g11
I150
I20
tp37
(F-90000.0
tp38
tp39
a((F0.3
g10
g24
I150
I40
tp40
(F-90000.0
tp41
tp42
a((F0.5
g6
g2
I100
I40
tp43
(F-40000.0
tp44
tp45
a((F0.1
g6
g2
I100
I20
tp46
(F-40000.0
tp47
tp48
a((F0.5
g1
g24
I100
I40
tp49
(F-40000.0
tp50
tp51
a((F0.1
g10
g11
I100
I40
tp52
(F-40000.0
tp53
tp54
a((F0.5
g6
g11
I100
I40
tp55
(F-40000.0
tp56
tp57
a((F0.3
g6
g24
I50
I40
tp58
(F-10000.0
tp59
tp60
a((F0.3
g1
g24
I50
I80
tp61
(F-10000.0
tp62
tp63
a((F0.1
g6
g2
I150
I20
tp64
(F-90000.0
tp65
tp66
a((F0.3
g10
g11
I100
I20
tp67
(F-40000.0
tp68
tp69
a((F0.3
g10
g11
I50
I40
tp70
(F-10000.0
tp71
tp72
a((F0.1
g1
g24
I150
I40
tp73
(F-90000.0
tp74
tp75
a((F0.5
g6
g24
I100
I80
tp76
(F-40000.0
tp77
tp78
a((F0.3
g1
g2
I100
I40
tp79
(F-40000.0
tp80
tp81
a((F0.3
g10
g11
I150
I40
tp82
(F-90000.0
tp83
tp84
a((F0.5
g1
g24
I150
I80
tp85
(F-90000.0
tp86
tp87
a((F0.3
g1
g24
I100
I20
tp88
(F-40000.0
tp89
tp90
a((F0.3
g6
g24
I150
I20
tp91
(F-90000.0
tp92
tp93
a((F0.3
g1
g24
I100
I40
tp94
(F-40000.0
tp95
tp96
a((F0.1
g10
g24
I150
I80
tp97
(F-90000.0
tp98
tp99
a((F0.1
g10
g2
I100
I40
tp100
(F-40000.0
tp101
tp102
a((F0.5
g1
g2
I150
I20
tp103
(F-90000.0
tp104
tp105
a((F0.3
g10
g2
I150
I40
tp106
(F-90000.0
tp107
tp108
a((F0.5
g1
g2
I50
I40
tp109
(F-10000.0
tp110
tp111
a((F0.5
g6
g2
I50
I20
tp112
(F-10000.0
tp113
tp114
a((F0.5
g10
g24
I50
I80
tp115
(F-10000.0
tp116
tp117
a((F0.3
g10
g24
I150
I40
tp118
(F-90000.0
tp119
tp120
a((F0.1
g10
g24
I150
I80
tp121
(F-90000.0
tp122
tp123
a((F0.3
g1
g11
I150
I80
tp124
(F-90000.0
tp125
tp126
a((F0.1
g1
g24
I100
I80
tp127
(F-40000.0
tp128
tp129
a((F0.5
g1
g2
I100
I20
tp130
(F-40000.0
tp131
tp132
a((F0.5
g6
g24
I150
I40
tp133
(F-90000.0
tp134
tp135
a((F0.3
g1
g24
I150
I40
tp136
(F-90000.0
tp137
tp138
a((F0.1
g1
g2
I100
I40
tp139
(F-40000.0
tp140
tp141
a((F0.1
g10
g11
I50
I20
tp142
(F-10000.0
tp143
tp144
a((F0.3
g6
g24
I100
I40
tp145
(F-40000.0
tp146
tp147
a((F0.1
g10
g24
I100
I80
tp148
(F-40000.0
tp149
tp150
a((F0.1
g10
g24
I150
I20
tp151
(F-90000.0
tp152
tp153
a((F0.5
g6
g24
I100
I40
tp154
(F-40000.0
tp155
tp156
a.