(lp0
((F0.1
S'uniform'
p1
S'continuousDominanceLoss'
p2
I100
I20
tp3
(F-19999.850886192733
tp4
tp5
a((F0.3
S'TwoPoint'
p6
S'dominanceCount'
p7
I150
I80
tp8
(F-44916.367302459585
tp9
tp10
a((F0.3
g6
g7
I100
I80
tp11
(F-19999.858459575353
tp12
tp13
a((F0.1
S'singlePoint'
p14
S'dominanceRank'
p15
I100
I20
tp16
(F-19999.896124838222
tp17
tp18
a((F0.5
g1
g15
I100
I80
tp19
(F-19999.67626380118
tp20
tp21
a((F0.3
g14
g2
I150
I40
tp22
(F-44958.17265366539
tp23
tp24
a((F0.1
g1
g15
I100
I40
tp25
(F-19999.902610506644
tp26
tp27
a((F0.1
g1
g15
I100
I20
tp28
(F-19999.67626380118
tp29
tp30
a((F0.5
g1
g7
I100
I20
tp31
(F-19999.850886192733
tp32
tp33
a((F0.5
g1
g7
I100
I80
tp34
(F-19999.902610506644
tp35
tp36
a((F0.1
g14
g7
I50
I20
tp37
(F-4999.985941094161
tp38
tp39
a((F0.3
g1
g2
I150
I80
tp40
(F-44976.26211282799
tp41
tp42
a((F0.3
g1
g2
I100
I20
tp43
(F-19999.850886192733
tp44
tp45
a((F0.1
g1
g7
I150
I20
tp46
(F-44916.367302459585
tp47
tp48
a((F0.3
g6
g15
I50
I40
tp49
(F-4999.975712085163
tp50
tp51
a((F0.1
g14
g15
I100
I40
tp52
(F-19999.918068968855
tp53
tp54
a((F0.3
g14
g15
I50
I80
tp55
(F-4999.985941094161
tp56
tp57
a((F0.3
g6
g7
I50
I80
tp58
(F-4999.913738991238
tp59
tp60
a((F0.3
g14
g15
I100
I80
tp61
(F-19999.918068968855
tp62
tp63
a((F0.1
g1
g15
I150
I20
tp64
(F-44970.22184549634
tp65
tp66
a((F0.1
g14
g2
I150
I40
tp67
(F-44958.17265366538
tp68
tp69
a((F0.1
g14
g15
I100
I80
tp70
(F-19999.918068968855
tp71
tp72
a((F0.1
g14
g15
I150
I40
tp73
(F-44976.26211282799
tp74
tp75
a((F0.1
g14
g15
I150
I20
tp76
(F-44916.367302459585
tp77
tp78
a((F0.5
g6
g15
I100
I80
tp79
(F-19999.918068968855
tp80
tp81
a((F0.3
g1
g15
I50
I40
tp82
(F-4999.982175504053
tp83
tp84
a((F0.3
g1
g2
I100
I20
tp85
(F-19999.850886192733
tp86
tp87
a((F0.3
g14
g7
I100
I80
tp88
(F-19999.918068968855
tp89
tp90
a((F0.3
g14
g15
I50
I20
tp91
(F-4999.982175504053
tp92
tp93
a((F0.1
g1
g15
I50
I80
tp94
(F-4999.985941094161
tp95
tp96
a((F0.1
g14
g2
I50
I80
tp97
(F-4999.983288442447
tp98
tp99
a((F0.3
g6
g7
I100
I40
tp100
(F-19999.896124838222
tp101
tp102
a((F0.5
g6
g7
I100
I80
tp103
(F-19999.918068968855
tp104
tp105
a((F0.3
g1
g7
I150
I40
tp106
(F-44916.367302459585
tp107
tp108
a((F0.3
g1
g7
I50
I20
tp109
(F-4999.985941094161
tp110
tp111
a((F0.5
g1
g2
I150
I20
tp112
(F-44976.26211282799
tp113
tp114
a((F0.1
g14
g15
I150
I40
tp115
(F-44976.26211282799
tp116
tp117
a((F0.5
g1
g15
I150
I40
tp118
(F-44880.33842851706
tp119
tp120
a((F0.1
g1
g7
I50
I80
tp121
(F-4999.985941094161
tp122
tp123
a((F0.3
g6
g2
I100
I40
tp124
(F-19999.918068968855
tp125
tp126
a((F0.5
g6
g15
I150
I40
tp127
(F-44976.26211282799
tp128
tp129
a((F0.1
g6
g7
I150
I20
tp130
(F-44958.17265366538
tp131
tp132
a((F0.1
g14
g2
I100
I80
tp133
(F-19999.918068968855
tp134
tp135
a((F0.5
g14
g7
I100
I40
tp136
(F-19999.902610506644
tp137
tp138
a((F0.3
g6
g7
I100
I20
tp139
(F-19999.918068968855
tp140
tp141
a((F0.3
g1
g15
I100
I40
tp142
(F-19999.918068968855
tp143
tp144
a((F0.1
g14
g15
I100
I80
tp145
(F-19999.918068968855
tp146
tp147
a((F0.3
g14
g7
I100
I40
tp148
(F-19999.67626380118
tp149
tp150
a((F0.1
g1
g7
I50
I20
tp151
(F-4999.985941094161
tp152
tp153
a((F0.3
g6
g2
I100
I20
tp154
(F-19999.918068968855
tp155
tp156
a.