(lp0
((F0.5
S'TwoPoint'
p1
S'dominanceRank'
p2
I50
I80
tp3
(F-4284.432980328481
tp4
tp5
a((F0.1
S'singlePoint'
p6
g2
I150
I80
tp7
(F-36486.925510010675
tp8
tp9
a((F0.1
g1
S'dominanceCount'
p10
I150
I80
tp11
(F-36506.693819374435
tp12
tp13
a((F0.3
S'uniform'
p14
g10
I150
I40
tp15
(F-37175.70988096761
tp16
tp17
a((F0.5
g6
g10
I150
I20
tp18
(F-38988.87690678431
tp19
tp20
a((F0.5
g14
S'continuousDominanceLoss'
p21
I150
I20
tp22
(F-38699.05683107582
tp23
tp24
a((F0.5
g1
g2
I150
I80
tp25
(F-38788.073782600084
tp26
tp27
a((F0.3
g1
g2
I150
I40
tp28
(F-37188.84930479921
tp29
tp30
a((F0.5
g1
g2
I100
I20
tp31
(F-17246.72363028634
tp32
tp33
a((F0.1
g14
g21
I150
I20
tp34
(F-36950.913027527706
tp35
tp36
a((F0.5
g1
g10
I100
I40
tp37
(F-17344.326700107547
tp38
tp39
a((F0.5
g1
g21
I100
I80
tp40
(F-16957.085680989832
tp41
tp42
a((F0.3
g1
g2
I50
I20
tp43
(F-4165.996202542532
tp44
tp45
a((F0.5
g6
g21
I150
I80
tp46
(F-38342.62822168738
tp47
tp48
a((F0.3
g1
g21
I150
I20
tp49
(F-37621.102676369854
tp50
tp51
a((F0.5
g6
g21
I150
I40
tp52
(F-38247.63096106802
tp53
tp54
a((F0.1
g14
g10
I100
I80
tp55
(F-16075.634910008104
tp56
tp57
a((F0.5
g1
g10
I150
I40
tp58
(F-38172.1563575242
tp59
tp60
a((F0.5
g14
g10
I50
I40
tp61
(F-4255.785847326564
tp62
tp63
a((F0.1
g1
g2
I150
I20
tp64
(F-37212.05477329199
tp65
tp66
a((F0.3
g6
g2
I100
I40
tp67
(F-16552.78673772709
tp68
tp69
a((F0.3
g14
g10
I100
I80
tp70
(F-16258.137372763662
tp71
tp72
a((F0.3
g6
g21
I50
I20
tp73
(F-4175.870067241051
tp74
tp75
a((F0.3
g1
g10
I100
I20
tp76
(F-16781.282397759674
tp77
tp78
a((F0.1
g6
g21
I100
I20
tp79
(F-16412.750005649385
tp80
tp81
a((F0.3
g6
g10
I150
I20
tp82
(F-38600.85206121176
tp83
tp84
a((F0.3
g1
g2
I150
I20
tp85
(F-37929.38189468127
tp86
tp87
a((F0.1
g6
g21
I150
I80
tp88
(F-36475.5028108608
tp89
tp90
a((F0.3
g6
g21
I150
I20
tp91
(F-38061.437819898245
tp92
tp93
a((F0.3
g1
g10
I100
I20
tp94
(F-16781.282397759674
tp95
tp96
a((F0.3
g1
g10
I50
I40
tp97
(F-4113.47241234175
tp98
tp99
a((F0.5
g6
g21
I50
I80
tp100
(F-4203.214372283008
tp101
tp102
a((F0.5
g6
g2
I100
I20
tp103
(F-17242.47052230093
tp104
tp105
a((F0.5
g1
g10
I50
I40
tp106
(F-4337.989388954598
tp107
tp108
a((F0.5
g1
g10
I50
I20
tp109
(F-4265.820711035754
tp110
tp111
a((F0.5
g6
g21
I100
I80
tp112
(F-17135.338918840553
tp113
tp114
a((F0.5
g6
g10
I50
I20
tp115
(F-4266.901829193087
tp116
tp117
a((F0.1
g14
g10
I50
I80
tp118
(F-3980.62284821051
tp119
tp120
a((F0.3
g1
g21
I100
I80
tp121
(F-16331.058807064705
tp122
tp123
a((F0.1
g6
g2
I150
I40
tp124
(F-36834.6201923996
tp125
tp126
a((F0.1
g14
g21
I150
I40
tp127
(F-36410.311152998765
tp128
tp129
a((F0.3
g6
g21
I150
I20
tp130
(F-38061.437819898245
tp131
tp132
a((F0.5
g6
g10
I150
I20
tp133
(F-38988.87690678431
tp134
tp135
a((F0.5
g6
g10
I100
I40
tp136
(F-16922.87401303495
tp137
tp138
a((F0.3
g1
g10
I50
I40
tp139
(F-4113.47241234175
tp140
tp141
a((F0.5
g1
g10
I50
I80
tp142
(F-4220.593108366169
tp143
tp144
a((F0.3
g14
g10
I100
I40
tp145
(F-16525.777197148218
tp146
tp147
a((F0.1
g1
g2
I150
I40
tp148
(F-36793.32756632285
tp149
tp150
a((F0.1
g14
g2
I100
I40
tp151
(F-16153.469501253616
tp152
tp153
a((F0.3
g1
g21
I100
I20
tp154
(F-16831.58700219454
tp155
tp156
a.