(lp0
((F0.3
S'TwoPoint'
p1
S'continuousDominanceLoss'
p2
I150
I40
tp3
(F-44993.56912785418
tp4
tp5
a((F0.1
g1
g2
I100
I40
tp6
(F-19997.157002890617
tp7
tp8
a((F0.3
S'uniform'
p9
S'dominanceRank'
p10
I150
I80
tp11
(F-44993.56912785418
tp12
tp13
a((F0.1
g9
g10
I50
I80
tp14
(F-4999.866954803288
tp15
tp16
a((F0.3
g9
S'dominanceCount'
p17
I150
I20
tp18
(F-44993.56912785418
tp19
tp20
a((F0.5
g9
g17
I150
I80
tp21
(F-44993.56912785418
tp22
tp23
a((F0.5
S'singlePoint'
p24
g10
I50
I80
tp25
(F-4999.917701977304
tp26
tp27
a((F0.5
g9
g10
I50
I80
tp28
(F-4999.917701977304
tp29
tp30
a((F0.5
g9
g2
I50
I20
tp31
(F-4999.917701977307
tp32
tp33
a((F0.3
g24
g10
I100
I20
tp34
(F-19998.239745135324
tp35
tp36
a((F0.5
g24
g2
I50
I20
tp37
(F-4999.866954803309
tp38
tp39
a((F0.5
g9
g2
I150
I40
tp40
(F-44993.56912785418
tp41
tp42
a((F0.3
g24
g2
I150
I80
tp43
(F-44996.01940668633
tp44
tp45
a((F0.3
g9
g2
I150
I80
tp46
(F-44993.56912785418
tp47
tp48
a((F0.3
g1
g10
I150
I20
tp49
(F-44996.01940668633
tp50
tp51
a((F0.3
g1
g17
I150
I40
tp52
(F-44993.56912785418
tp53
tp54
a((F0.5
g9
g17
I100
I40
tp55
(F-19998.239745135324
tp56
tp57
a((F0.1
g24
g10
I50
I40
tp58
(F-4999.866954803288
tp59
tp60
a((F0.1
g1
g17
I50
I40
tp61
(F-4999.917701977304
tp62
tp63
a((F0.5
g9
g2
I50
I80
tp64
(F-4999.917701977304
tp65
tp66
a((F0.3
g9
g17
I150
I80
tp67
(F-44949.06085785887
tp68
tp69
a((F0.5
g24
g10
I50
I20
tp70
(F-4999.866954803336
tp71
tp72
a((F0.5
g9
g17
I100
I80
tp73
(F-19998.239745135324
tp74
tp75
a((F0.1
g1
g2
I100
I80
tp76
(F-19998.239745135324
tp77
tp78
a((F0.1
g24
g17
I100
I20
tp79
(F-19997.157002890614
tp80
tp81
a((F0.1
g1
g10
I50
I40
tp82
(F-4999.917701977304
tp83
tp84
a((F0.3
g24
g17
I50
I40
tp85
(F-4999.866954803288
tp86
tp87
a((F0.3
g1
g17
I150
I80
tp88
(F-44996.01940668633
tp89
tp90
a((F0.5
g24
g2
I150
I20
tp91
(F-44996.019406686784
tp92
tp93
a((F0.3
g9
g2
I50
I40
tp94
(F-4999.866954803288
tp95
tp96
a((F0.1
g9
g10
I100
I40
tp97
(F-19998.239745135324
tp98
tp99
a((F0.5
g1
g2
I100
I20
tp100
(F-19998.239745135477
tp101
tp102
a((F0.1
g9
g17
I150
I80
tp103
(F-44993.56912785418
tp104
tp105
a((F0.1
g24
g2
I50
I80
tp106
(F-4999.917701977304
tp107
tp108
a((F0.5
g24
g10
I100
I40
tp109
(F-19997.157002890614
tp110
tp111
a((F0.1
g1
g17
I100
I20
tp112
(F-19997.157002890614
tp113
tp114
a((F0.1
g1
g10
I100
I20
tp115
(F-19997.157002890614
tp116
tp117
a((F0.3
g24
g17
I50
I20
tp118
(F-4999.917701977304
tp119
tp120
a((F0.5
g9
g2
I100
I80
tp121
(F-19993.11381227963
tp122
tp123
a((F0.3
g24
g17
I150
I20
tp124
(F-44996.01940668633
tp125
tp126
a((F0.1
g24
g2
I150
I80
tp127
(F-44993.56912785418
tp128
tp129
a((F0.3
g1
g2
I100
I80
tp130
(F-19997.157002890614
tp131
tp132
a((F0.5
g24
g17
I150
I80
tp133
(F-44993.56912785418
tp134
tp135
a((F0.1
g9
g2
I50
I80
tp136
(F-4999.917701977304
tp137
tp138
a((F0.5
g24
g10
I150
I20
tp139
(F-44993.569127854294
tp140
tp141
a((F0.1
g24
g2
I50
I20
tp142
(F-4999.866954803288
tp143
tp144
a((F0.5
g9
g2
I100
I20
tp145
(F-19997.15700289062
tp146
tp147
a((F0.1
g1
g17
I50
I40
tp148
(F-4999.917701977304
tp149
tp150
a((F0.3
g24
g2
I100
I40
tp151
(F-19998.239745135324
tp152
tp153
a((F0.3
g1
g17
I50
I80
tp154
(F-4999.1983352054485
tp155
tp156
a.