(lp0
((F0.1
S'uniform'
p1
S'continuousDominanceLoss'
p2
I100
I20
tp3
(F-39990.9619523891
tp4
tp5
a((F0.5
S'TwoPoint'
p6
g2
I100
I40
tp7
(F-39990.96195238912
tp8
tp9
a((F0.1
S'singlePoint'
p10
S'dominanceRank'
p11
I100
I20
tp12
(F-39976.86791647011
tp13
tp14
a((F0.1
g10
S'dominanceCount'
p15
I150
I40
tp16
(F-89962.38431857119
tp17
tp18
a((F0.1
g6
g2
I100
I80
tp19
(F-39990.961952389116
tp20
tp21
a((F0.1
g6
g15
I100
I40
tp22
(F-39991.071541132565
tp23
tp24
a((F0.1
g1
g11
I100
I20
tp25
(F-39990.9619523891
tp26
tp27
a((F0.5
g1
g2
I150
I40
tp28
(F-89962.38431857119
tp29
tp30
a((F0.5
g10
g2
I150
I40
tp31
(F-89962.3843185712
tp32
tp33
a((F0.1
g6
g2
I150
I80
tp34
(F-89962.8398192045
tp35
tp36
a((F0.5
g6
g15
I150
I20
tp37
(F-89962.38431857715
tp38
tp39
a((F0.3
g1
g15
I50
I40
tp40
(F-9996.956146468414
tp41
tp42
a((F0.5
g1
g2
I150
I20
tp43
(F-89962.38431857391
tp44
tp45
a((F0.1
g6
g15
I100
I20
tp46
(F-39990.9619523891
tp47
tp48
a((F0.5
g10
g11
I100
I40
tp49
(F-39990.96195238914
tp50
tp51
a((F0.1
g6
g2
I150
I80
tp52
(F-89962.8398192045
tp53
tp54
a((F0.1
g6
g15
I100
I40
tp55
(F-39991.071541132565
tp56
tp57
a((F0.1
g10
g2
I50
I20
tp58
(F-9996.956146468414
tp59
tp60
a((F0.3
g10
g11
I50
I80
tp61
(F-9996.956146468414
tp62
tp63
a((F0.5
g6
g15
I150
I40
tp64
(F-89962.83981920451
tp65
tp66
a((F0.5
g10
g15
I100
I80
tp67
(F-39993.3358683775
tp68
tp69
a((F0.5
g1
g2
I50
I80
tp70
(F-9996.956146468414
tp71
tp72
a((F0.1
g1
g11
I50
I20
tp73
(F-9996.956146468414
tp74
tp75
a((F0.5
g1
g15
I150
I80
tp76
(F-89962.83981920448
tp77
tp78
a((F0.1
g1
g11
I50
I40
tp79
(F-9996.956146468414
tp80
tp81
a((F0.1
g1
g2
I150
I40
tp82
(F-89962.83981920448
tp83
tp84
a((F0.1
g6
g15
I150
I40
tp85
(F-89966.1848066883
tp86
tp87
a((F0.3
g6
g11
I150
I40
tp88
(F-89962.83981920448
tp89
tp90
a((F0.1
g10
g15
I100
I80
tp91
(F-39991.87620224003
tp92
tp93
a((F0.1
g1
g11
I100
I40
tp94
(F-39990.9619523891
tp95
tp96
a((F0.5
g6
g11
I150
I80
tp97
(F-89962.38431857119
tp98
tp99
a((F0.1
g6
g2
I150
I40
tp100
(F-89962.3843185712
tp101
tp102
a((F0.1
g1
g11
I50
I80
tp103
(F-9996.956146468414
tp104
tp105
a((F0.1
g10
g11
I50
I20
tp106
(F-9992.318141396383
tp107
tp108
a((F0.1
g10
g15
I100
I80
tp109
(F-39991.87620224003
tp110
tp111
a((F0.3
g1
g11
I150
I80
tp112
(F-89972.2546825023
tp113
tp114
a((F0.1
g6
g15
I50
I80
tp115
(F-9996.993055644742
tp116
tp117
a((F0.1
g10
g2
I150
I80
tp118
(F-89962.83981920451
tp119
tp120
a((F0.3
g10
g2
I150
I80
tp121
(F-89962.38431857119
tp122
tp123
a((F0.3
g6
g15
I150
I20
tp124
(F-89962.38431857123
tp125
tp126
a((F0.3
g6
g11
I100
I40
tp127
(F-39993.3358683775
tp128
tp129
a((F0.5
g10
g15
I100
I20
tp130
(F-39990.96195239296
tp131
tp132
a((F0.5
g6
g11
I150
I40
tp133
(F-89962.38431857119
tp134
tp135
a((F0.3
g10
g2
I100
I40
tp136
(F-39993.3358683775
tp137
tp138
a((F0.3
g6
g15
I150
I20
tp139
(F-89962.38431857123
tp140
tp141
a((F0.5
g1
g15
I50
I80
tp142
(F-9996.993055644742
tp143
tp144
a((F0.1
g10
g11
I100
I80
tp145
(F-39990.9619523891
tp146
tp147
a((F0.3
g6
g15
I150
I80
tp148
(F-89962.38431857119
tp149
tp150
a((F0.1
g6
g15
I50
I40
tp151
(F-9996.956146468414
tp152
tp153
a((F0.5
g1
g11
I150
I20
tp154
(F-89962.38431859396
tp155
tp156
a.