(lp0
((F0.3
S'TwoPoint'
p1
S'dominanceCount'
p2
I150
I40
tp3
(F-175756.89446566495
tp4
tp5
a((F0.5
g1
S'dominanceRank'
p6
I100
I40
tp7
(F-78302.40773774737
tp8
tp9
a((F0.1
S'uniform'
p10
g2
I150
I40
tp11
(F-175980.2365511477
tp12
tp13
a((F0.3
g10
g2
I150
I80
tp14
(F-175754.57631164376
tp15
tp16
a((F0.1
S'singlePoint'
p17
g6
I50
I80
tp18
(F-19655.76015554179
tp19
tp20
a((F0.3
g1
S'continuousDominanceLoss'
p21
I50
I40
tp22
(F-19180.809804016943
tp23
tp24
a((F0.1
g1
g6
I50
I80
tp25
(F-19672.390463065167
tp26
tp27
a((F0.5
g17
g6
I100
I80
tp28
(F-78313.69978167786
tp29
tp30
a((F0.3
g17
g21
I50
I80
tp31
(F-19180.79431640984
tp32
tp33
a((F0.1
g10
g2
I50
I40
tp34
(F-19744.556926350724
tp35
tp36
a((F0.3
g1
g6
I50
I20
tp37
(F-19650.165236678768
tp38
tp39
a((F0.3
g10
g21
I100
I20
tp40
(F-76437.42767956988
tp41
tp42
a((F0.1
g17
g2
I150
I80
tp43
(F-175764.03012417955
tp44
tp45
a((F0.5
g1
g2
I150
I40
tp46
(F-175748.9670427103
tp47
tp48
a((F0.1
g10
g21
I50
I40
tp49
(F-19180.809804016935
tp50
tp51
a((F0.1
g17
g6
I50
I40
tp52
(F-19637.346107943184
tp53
tp54
a((F0.1
g10
g21
I50
I40
tp55
(F-19180.809804016935
tp56
tp57
a((F0.1
g10
g2
I150
I20
tp58
(F-176004.71771448912
tp59
tp60
a((F0.5
g1
g21
I50
I20
tp61
(F-19180.80680505439
tp62
tp63
a((F0.5
g10
g2
I100
I80
tp64
(F-78305.67111500289
tp65
tp66
a((F0.3
g10
g21
I100
I40
tp67
(F-76440.59303570175
tp68
tp69
a((F0.1
g17
g2
I100
I80
tp70
(F-78464.25429745564
tp71
tp72
a((F0.3
g10
g6
I100
I40
tp73
(F-78319.6271488671
tp74
tp75
a((F0.1
g1
g2
I150
I80
tp76
(F-175775.3900674742
tp77
tp78
a((F0.5
g1
g2
I150
I20
tp79
(F-175754.44903523315
tp80
tp81
a((F0.5
g17
g21
I150
I80
tp82
(F-171555.02346398716
tp83
tp84
a((F0.1
g17
g21
I50
I20
tp85
(F-19180.8033776765
tp86
tp87
a((F0.1
g1
g6
I50
I40
tp88
(F-19645.587737214948
tp89
tp90
a((F0.1
g10
g21
I50
I20
tp91
(F-19180.809804016943
tp92
tp93
a((F0.3
g10
g2
I50
I80
tp94
(F-19647.699418442688
tp95
tp96
a((F0.3
g17
g2
I50
I20
tp97
(F-19653.2336371462
tp98
tp99
a((F0.5
g1
g6
I150
I20
tp100
(F-175740.3030832044
tp101
tp102
a((F0.5
g17
g2
I100
I20
tp103
(F-78323.3653239083
tp104
tp105
a((F0.1
g10
g6
I150
I80
tp106
(F-175763.20757368728
tp107
tp108
a((F0.5
g10
g6
I150
I80
tp109
(F-175734.6606371765
tp110
tp111
a((F0.5
g17
g2
I150
I40
tp112
(F-175760.02256995655
tp113
tp114
a((F0.1
g1
g2
I150
I80
tp115
(F-175775.3900674742
tp116
tp117
a((F0.5
g1
g2
I100
I80
tp118
(F-78317.73916281847
tp119
tp120
a((F0.3
g10
g2
I150
I40
tp121
(F-175730.13649077262
tp122
tp123
a((F0.5
g17
g2
I100
I20
tp124
(F-78323.3653239083
tp125
tp126
a((F0.1
g17
g6
I50
I80
tp127
(F-19655.76015554179
tp128
tp129
a((F0.5
g1
g6
I150
I80
tp130
(F-175770.38344055324
tp131
tp132
a((F0.3
g17
g6
I50
I40
tp133
(F-19651.578905125603
tp134
tp135
a((F0.1
g10
g6
I50
I20
tp136
(F-19652.65579168814
tp137
tp138
a((F0.1
g17
g2
I150
I40
tp139
(F-175789.94258631227
tp140
tp141
a((F0.3
g10
g6
I150
I40
tp142
(F-175721.33331252294
tp143
tp144
a((F0.5
g1
g2
I50
I40
tp145
(F-19650.633738696073
tp146
tp147
a((F0.1
g10
g6
I100
I80
tp148
(F-78398.55688581304
tp149
tp150
a((F0.1
g17
g6
I100
I40
tp151
(F-79493.01806663047
tp152
tp153
a((F0.5
g10
g2
I100
I20
tp154
(F-78308.78641209136
tp155
tp156
a.