(lp0
(F0.6329288652549766
F0.36702539651124055
F0.0762554082778214
F0.20091504526598236
F0.19823796685921802
F0.5680891895321911
F0.2106862695870373
F0.9778522835683059
F0.08682021635388637
F0.3874888723976574
tp1
a(F0.9518895964566443
F0.9027444598817437
F0.24632308466466557
F0.4270170466719808
F0.09500172499536796
F0.25891061307694363
F0.8977099851304728
F0.5333637894342997
F0.16737229261081332
F0.7661688746172078
tp2
a(F0.9460801759797377
F0.9649809781028293
F0.39233461729210806
F0.4767312192385327
F0.15106671306178887
F0.3357826863102784
F0.8270889216873458
F0.8304718238776189
F0.691521668821748
F0.04437078617544965
tp3
a(F0.7956166617954256
F0.5091366292375135
F0.09179605323008921
F0.11251382489554829
F0.38864880555312
F0.7293940093441902
F0.6948319656406159
F0.3298300962987377
F0.8780202937506771
F0.7579782501927939
tp4
a(F0.4154773311982576
F0.8610426709414327
F0.29772824781951834
F0.6184163216099868
F0.5692880103140786
F0.21579389243506197
F0.48799580895149897
F0.7789369610163794
F0.14274288059973927
F0.06513333032151136
tp5
a(F0.049694529101414475
F0.3560010721835234
F0.08375840497296538
F0.10435271624901987
F0.6942257505852968
F0.45886307580475794
F0.26981039592021305
F0.6788391426257158
F0.43865521481173164
F0.5753840719438233
tp6
a(F0.5693850142656427
F0.7645327744230482
F0.15261131566620256
F0.3817610115748179
F0.3253304851841379
F0.5555343322121781
F0.6525747603917699
F0.8414454293974646
F0.7123273224387534
F0.13096938819871906
tp7
a(F0.5945899890320879
F0.8310765627341026
F0.67096317578166
F0.6480033038235086
F0.27834981858934715
F0.9122267336772463
F0.5682230469701481
F0.8031048341417608
F0.6367957337627186
F0.8636397506562026
tp8
a(F0.11936169174800249
F0.3248036738699339
F0.21640853806512872
F0.5165519346576878
F0.5060275293161022
F0.3204528988121652
F0.18318747366403743
F0.7537678359028779
F0.19155296455923965
F0.13502657855945766
tp9
a(F0.8675567662963688
F0.41054543148827716
F0.4673189912153288
F0.9415353365690807
F0.679056270333257
F0.2854371928574001
F0.35338629581972425
F0.10315217400186216
F0.4670491769777543
F0.4997605143724744
tp10
a(F0.8219116072164795
F0.4290458878946578
F0.008900939723509027
F0.24728622971343284
F0.5774572172929908
F0.575128103096578
F0.7431721238264734
F0.6046790863970916
F0.2929430033863817
F0.6130806630555993
tp11
a(F0.5522451435184306
F0.36747583713238774
F0.6184040064159066
F0.4594486924560016
F0.07531104133653121
F0.22691684356366093
F0.7231870996780939
F0.6654855798027315
F0.8324967491994368
F0.36888604729951135
tp12
a(F0.6058911004010001
F0.5300289963039851
F0.19596685110697243
F0.84392758407739
F0.9757035397897107
F0.7895769057446071
F0.36015578008657445
F0.931885874439148
F0.7676844482230973
F0.8441547393460325
tp13
a(F0.451008408446956
F0.059044951635152665
F0.3259675120286587
F0.8308992851936258
F0.5054202347846138
F0.023592852794224517
F0.3143590816013253
F0.8294217316214707
F0.1680868614649329
F0.6207115482510495
tp14
a(F0.4997421153154159
F0.9900028830832069
F0.70563263550601
F0.07818565346218942
F0.015709143590640684
F0.580778070859544
F0.7345316505198171
F0.47188790176379225
F0.17014140152860668
F0.23516103999756288
tp15
a(F0.33440367728749054
F0.45134367505048656
F0.17741069219199124
F0.7621839526457984
F0.9065198548099831
F0.10509027531823922
F0.17107548375582438
F0.6340770485075287
F0.08891299744122749
F0.5634554379642959
tp16
a(F0.9031941481839897
F0.8559647287578708
F0.8014794366711132
F0.10548484210466691
F0.4392581666335047
F0.9624883261145569
F0.3527141983415575
F0.15373331879165208
F0.5366732483917858
F0.1667597066283596
tp17
a(F0.3370009482625854
F0.4399778049814296
F0.5375583882756152
F0.9777137455467422
F0.4403707467973854
F0.8733762717001864
F0.9773488223507951
F0.09611076294556697
F0.665668936602843
F0.9915904900304224
tp18
a(F0.925254177822515
F0.8797779105498348
F0.10535290862625357
F0.9833311407231227
F0.268254078110158
F0.17350743601001528
F0.009961938758927591
F0.9980810502777655
F0.35112568052965787
F0.4454746552413349
tp19
a(F0.30914372301182946
F0.4279985818538513
F0.598848839358143
F0.8230850029487966
F0.20578926940729236
F0.2690434126018051
F0.13934427769488866
F0.2593302748376868
F0.04239456092548122
F0.5884620234961094
tp20
a(F0.31660557394208644
F0.39336032487022377
F0.7447239577314577
F0.1869375314669569
F0.44270412799252146
F0.8154789429429645
F0.4705694324184265
F0.3322996241872347
F0.668028127292645
F0.2526073697174561
tp21
a(F0.9037109408579552
F0.33313043169028866
F0.8093448942271598
F0.7876961403171048
F0.6690919249275158
F0.9523496231511824
F0.47665172237795583
F0.4515337092796936
F0.6417958085689953
F0.2786854748186286
tp22
a(F0.4519688050097611
F0.7349773799891512
F0.12188617355874376
F0.4768856711894782
F0.026435620062522314
F0.37067691848265016
F0.6139068328639666
F0.46825815038101415
F0.9964540384212619
F0.761125782042241
tp23
a(F0.5642705396710811
F0.7770526572267367
F0.6957742438247747
F0.7000039127080827
F0.4348553970480785
F0.20677785579271524
F0.8215767281611303
F0.6546701241539944
F0.4981306540578314
F0.9338932175867835
tp24
a(F0.8523438336682924
F0.9423539926285338
F0.1684327907834029
F0.10437734486236472
F0.9416678703883683
F0.22503502115638319
F0.1902095897007915
F0.7817040835349471
F0.01018940407960589
F0.06817072989671402
tp25
a(F0.653595212269607
F0.6171792909176086
F0.9254368755697236
F0.5583129698025932
F0.979196950804333
F0.6959892681298542
F0.6369081757722086
F0.04818211771359915
F0.3008028046170408
F0.4465683673404369
tp26
a(F0.7113714976201592
F0.6579945050188136
F0.9404907158986245
F0.041437389531230884
F0.009610381007989832
F0.5790891419841356
F0.10265742547655521
F0.6050513841015461
F0.054251707051307885
F0.4713293288022544
tp27
a(F0.7580941270939738
F0.4172825555499965
F0.6105282319201194
F0.5150507007267641
F0.7076170364334572
F0.6805991522381927
F0.059851887139799165
F0.82637381891225
F0.5371937279841602
F0.0016490500558739019
tp28
a(F0.04155727523149744
F0.5625748248644168
F0.9600882356502656
F0.1429263946112913
F0.1823517949408361
F0.0683387549222284
F0.9999999448020025
F0.24903341040586768
F0.5561860426341554
F0.9242094342963053
tp29
a(F0.9585089339089959
F0.9039300680446681
F0.25143122004862095
F0.7664430210524018
F0.9369994322366328
F0.3587820504164473
F0.6462733571399202
F0.3991404576755959
F0.26109609630639397
F0.7380469054725872
tp30
a(F0.6967258163548314
F0.2650657631244189
F0.7450768437768354
F0.46593528778265403
F0.5153133215825069
F0.4054198991846737
F0.8339169218600077
F0.7469375733124821
F0.7455649133417188
F0.04562569880614731
tp31
a(F0.726786309641362
F0.21620083635691556
F0.22389626437671206
F0.34171999077093385
F0.9062078968618524
F0.9780991081749513
F0.6388272494014193
F0.009520417599337305
F0.559388587287464
F0.4782232793456582
tp32
a(F0.3993099318227391
F0.26443914220429043
F0.6596141529769609
F0.6733912548579714
F0.6452051369809599
F0.823826000939847
F0.42426523824540474
F0.5762613871077401
F0.23507486247310727
F0.6062337740867925
tp33
a(F0.6567494702700596
F0.6329976513214115
F0.44104945446651767
F0.8947227844779776
F0.06306421591651379
F0.9607067525310403
F0.854845365592736
F0.17898703482112266
F0.00301513875147974
F0.7952808995782443
tp34
a(F0.06839221671179618
F0.4946898607525799
F0.9179376156292829
F0.1078157042515353
F0.8460016665788809
F0.7931911670233464
F0.7394801556577371
F0.39346360187736196
F0.5709073180134432
F0.4400702785442522
tp35
a(F0.045652480723249456
F0.5302286087324415
F0.2691961826892866
F0.6034127463042815
F0.6036127622421744
F0.14804458365815232
F0.4095784993059499
F0.08192882126691259
F0.0255917968235172
F0.2166481024470467
tp36
a(F0.3772695350955416
F0.21031758785922905
F0.34173591159636596
F0.6175056464505507
F0.35817844190946313
F0.6181693155307262
F0.8278532870079414
F0.5635767005104788
F0.8002805126185882
F0.5902129941092445
tp37
a(F0.35640685650511117
F0.15824375904448085
F0.3881886840116995
F0.7545007419222163
F0.0044382667243677565
F0.40825802330519223
F0.027306277481079277
F0.40458376094238946
F0.444130167242228
F0.8404709688897789
tp38
a(F0.8396736618426539
F0.05028210910041697
F0.11498557597471881
F0.42979560051228416
F0.010008542929224262
F0.24703604599016904
F0.2942667081247953
F0.22976364897357726
F0.3636238312077055
F0.7556523128417465
tp39
a(F0.807041344820405
F0.6699659330246238
F0.20876216379551682
F0.4617905658941551
F0.9509467919769876
F0.026526798121199402
F0.9670711152866426
F0.6825636780352126
F0.46550280926064813
F0.9094805810164746
tp40
a(F0.6889869038841115
F0.549966335866961
F0.9651652953991885
F0.14626486314371623
F0.6519778532368382
F0.5945621880873102
F0.47733922185762967
F0.6900251456207371
F0.9328946662284424
F0.9923419195795719
tp41
a(F0.9561511821342249
F0.7270544992557159
F0.25319865425582055
F0.7400685254781052
F0.4870371752081931
F0.5454579775813939
F0.4672444724639223
F0.9688780556501136
F0.4183262967575725
F0.5311115096576553
tp42
a(F0.8935500683658989
F0.9308235020113068
F0.3527490980504998
F0.610886657886156
F0.2318132210298599
F0.7656521322075546
F0.4789208929498525
F0.07032386053756912
F0.9605098949440611
F0.21550709065378926
tp43
a(F0.907223053801989
F0.4571693328069071
F0.4114488470230784
F0.03358448022185223
F0.2762217413290594
F0.7452573478634977
F0.6764248816474492
F0.6282570677721926
F0.20636608195969774
F0.010425228669071918
tp44
a(F0.4143375975100908
F0.9523079754930732
F0.13432321070026465
F0.07717227079571964
F0.16853451830092847
F0.6876871379877245
F0.3603742511694654
F0.5617503143022612
F0.33509838859478924
F0.12314276399692381
tp45
a(F0.18562790011615504
F0.7387257530143726
F0.9934046419576912
F0.4611809921708996
F0.07278924164607425
F0.2955545501830653
F0.39396115391755115
F0.19137857722483365
F0.10672129507493111
F0.9552504392804865
tp46
a(F0.6069704163670424
F0.566356520980979
F0.1639919670916835
F0.768501380668257
F0.9314659249363536
F0.1743838307906026
F0.16764055418654478
F0.1516572933204866
F0.4558043479997522
F0.35578814832091166
tp47
a(F0.782746312169631
F0.1130470413834519
F0.830188091864105
F0.49144370848211294
F0.21533679715050602
F0.4255294031713468
F0.4674404169700723
F0.5735225637574127
F0.8496618803165729
F0.6811532728431824
tp48
a(F0.5315663155563001
F0.7269441701100702
F0.3006569422029308
F0.04372553122848688
F0.7684699851366723
F0.5797097070768855
F0.8402856616332938
F0.6796431749022455
F0.6464655873252828
F0.346463115244418
tp49
a(F0.7607478532817536
F0.19799250578704208
F0.025070078361006054
F0.5011671170003201
F0.29420653320411383
F0.7285211040379084
F0.5459114967087303
F0.48555481018352964
F0.03254787675866244
F0.2615726202259435
tp50
a(F0.09605644909680311
F0.5174658335882097
F0.6301587787928611
F0.9033042006089586
F0.10479774472280623
F0.9004473343495514
F0.32580776676602974
F0.6013740831646127
F0.7225382384370572
F0.1835013622236854
tp51
a(F0.4339629475054114
F0.41045796615576957
F0.5788783707148725
F0.7152820682633857
F0.31634088609329536
F0.10215966475222693
F0.027774123943454687
F0.34372499046826843
F0.9887153549741415
F0.5475425933461026
tp52
a(F0.731869110902742
F0.30328093669518275
F0.29385826284136285
F0.3752998902616306
F0.602492842588136
F0.8889279786082998
F0.21068626450161176
F0.7161851222056494
F0.6270676812640812
F0.5713146136384946
tp53
a(F0.10227482380888553
F0.35222897673427866
F0.9915414138934362
F0.7159721446542283
F0.09462714831569707
F0.43284832794405703
F0.49745459656528934
F0.27435089997229434
F0.8186444116698706
F0.1290002320951763
tp54
a(F0.07567960562012843
F0.39217376626301725
F0.2940019205878637
F0.15199463604493846
F0.8182038036362448
F0.28241742001314896
F0.80206686182978
F0.6483619792514211
F0.8085839471242212
F0.28655660610576306
tp55
a(F0.28646037468548535
F0.3859148935368345
F0.3388471337874178
F0.2612883095709353
F0.548314861642421
F0.3110049275779926
F0.6535386058758927
F0.232534102218652
F0.35764116348124075
F0.1511431156380605
tp56
a(F0.43577283734183914
F0.9408949883529438
F0.2803894813731107
F0.7940864987768006
F0.7538026038921269
F0.650816105808306
F0.42566722871360607
F0.40956658760511533
F0.3329776901119461
F0.8099854188299987
tp57
a(F0.5195411545280565
F0.7343683074304489
F0.46056493833408507
F0.6097775687594915
F0.4030959039109908
F0.8918613585206238
F0.27362052839191
F0.1258406654875105
F0.10674171748403805
F0.8259093282068793
tp58
a(F0.16626152147721807
F0.5041306048075676
F0.32761132443619656
F0.47850914790986543
F0.15433263423967025
F0.24473965680139265
F0.31681617968982867
F0.12409787767335767
F0.7310827159112089
F0.5360538427943229
tp59
a(F0.44361035341426314
F0.5709539298322999
F0.16966853787954062
F0.916745166670798
F0.5247956998927314
F0.8052149636203338
F0.6735988484511152
F0.6292530492527105
F0.7634075204003762
F0.8862706489636677
tp60
a(F0.23269133026722888
F0.007880832343337918
F0.8964229642369009
F0.8209353829637761
F0.46434213534463553
F0.5038920815637843
F0.3691386900476019
F0.11100894134662853
F0.1178676724785479
F0.0019693480854936496
tp61
a(F0.06440703559091732
F0.21379955297102715
F0.7212483355321929
F0.7383821275243979
F0.43315513735712796
F0.8093595351527794
F0.6177384904057264
F0.8090468268792751
F0.37928851410859876
F0.9790319185044375
tp62
a(F0.96243589690816
F0.01217501655228359
F0.7736252051363564
F0.4650351340194103
F0.2318948369110685
F0.6100752454402515
F0.440732339211923
F0.31796861907114937
F0.5819406474032432
F0.5509990297082333
tp63
a(F0.45356031718262413
F0.8206932584429633
F0.3067158300390831
F0.914982222320353
F0.8421972608322097
F0.15054116294166242
F0.3830626412894096
F0.5439372682139015
F0.8619606195993156
F0.315289253929942
tp64
a(F0.2211041729405976
F0.0647886659468847
F0.3442871505553122
F0.7913531568235476
F0.9418672235742664
F0.7409890872833598
F0.5992034945166976
F0.5752177685597107
F0.6227283440593782
F0.1397740524394191
tp65
a(F0.7678258898766762
F0.9411513237492629
F0.8615008894511568
F0.7666584506177713
F0.26540531205756834
F0.12472528303880381
F0.31156248381950113
F0.1649777415045084
F0.7518534765412531
F0.0005608790594453517
tp66
a(F0.29249206245274506
F0.45339627166132
F0.24174229224966837
F0.7588115217324471
F0.12848587603039796
F0.941841586417903
F0.8725166404438556
F0.8868050081725003
F0.8348566131894435
F0.8772186198066149
tp67
a(F0.19523032486231795
F0.3279222351046075
F0.718279444874219
F0.5480984058009003
F0.8285141369332135
F0.17255803436575268
F0.8485472433023126
F0.2791742565877996
F0.09190579459470027
F0.274627526485436
tp68
a(F0.28985035541522064
F0.523969413263753
F0.76208827801202
F0.46864152723297015
F0.19721164130091684
F0.7359539389599622
F0.6601710213833664
F0.08002831877376348
F0.23616504385276682
F0.6403404671827684
tp69
a(F0.07985351318765899
F0.36964297110899214
F0.3743136931758765
F0.8783043795156457
F0.400535496519018
F0.03378301745576906
F0.42006497131248
F0.430958172371383
F0.5016979280658539
F0.4982465652901721
tp70
a(F0.5558930850205583
F0.570878838876538
F0.7986205704439845
F0.9861067647847249
F0.0539217285200273
F0.9821757953029047
F0.8600850875633311
F0.9534481167271153
F0.981343347834876
F0.6961248137027206
tp71
a(F0.2848917397891292
F0.45035664243443996
F0.2585962582823319
F0.2872132753291917
F0.00961514400701935
F0.5620740362839332
F0.45343077303469836
F0.7607604345693249
F0.5002996280954185
F0.19742887321659142
tp72
a(F0.8502823554995002
F0.6688168553326714
F0.16783575499215664
F0.9288028721543565
F0.4415415102036079
F0.72137519009502
F0.6164133199983083
F0.6313497760052355
F0.16211255444245531
F0.9203042062861965
tp73
a(F0.5231348758605618
F0.004135582975640539
F0.1391627072060807
F0.21367559416623672
F0.5695632853262106
F0.06936885365408263
F0.06578188537066143
F0.16865622572334804
F0.6933045332044946
F0.994432765213947
tp74
a(F0.6452141051463487
F0.7375389326128394
F0.09908912700226324
F0.7312934276591819
F0.9302949507715439
F0.0998412495243628
F0.1403652240838119
F0.7804463327443071
F0.1095759772096272
F0.8496201967534854
tp75
a(F0.5317230723555567
F0.6971462589869382
F0.6084227724261914
F0.90143804019706
F0.5516369389705568
F0.918471175981652
F0.6471145779423513
F0.6383545234247513
F0.022557668887342675
F0.04981323855823794
tp76
a(F0.926732208455637
F0.4778930922798804
F0.3984066828359638
F0.6962365247069364
F0.7772980215445708
F0.3104933903089765
F0.7863316445366452
F0.8302468173343533
F0.6811726158864886
F0.8671743948939727
tp77
a(F0.33889646704188003
F0.15530401893642665
F0.31136261272948085
F0.82195979425137
F0.6871902647543732
F0.33856518311439565
F0.01348848055863161
F0.11146737633351678
F0.8624134912193124
F0.9921167883254856
tp78
a(F0.8367779716450265
F0.01957495492512129
F0.3738613933833054
F0.049625605256975125
F0.532586882856957
F0.23550478018237375
F0.4581422852761414
F0.7000008266130064
F0.30425591060082235
F0.5660674211847876
tp79
a(F0.32322627534955006
F0.33232159055573907
F0.5322682840910503
F0.7541549349938999
F0.3160987534775168
F0.5629957765467278
F0.7035356487974179
F0.3425103810015435
F0.5212231625964479
F0.304205971341702
tp80
a(F0.3974798260393826
F0.7249856301358221
F0.9065814613326953
F0.3065288782918607
F0.25184842779647376
F0.1124449461087822
F0.5799862809844992
F0.8996022184983291
F0.6985519335614203
F0.30934887840891323
tp81
a(F0.7126873152909474
F0.2668394242441202
F0.45070877717955005
F0.9366576010467178
F0.7625439286963416
F0.933174299761817
F0.3797554324544009
F0.7643425915716775
F0.93142529628002
F0.292991816038802
tp82
a(F0.1909321735423244
F0.10438572167369975
F0.6105766120250196
F0.6905077651853916
F0.9835757695620092
F0.3571524373061581
F0.6375223928423864
F0.473550324713784
F0.8417626872791364
F0.4046310063543419
tp83
a(F0.835984880308108
F0.846871244783517
F0.5358457353853509
F0.7605070608810219
F0.8360256160116178
F0.7130905690797015
F0.02103531402853054
F0.644511722911613
F0.10700721969563876
F0.44162182503338987
tp84
a(F0.5372560095092312
F0.011340446946454308
F0.16307294447811016
F0.07285173452068217
F0.8415552728929586
F0.7090070685419335
F0.13097824043639883
F0.37397765024190466
F0.13887035295966077
F0.8892635454019079
tp85
a(F0.9126680279045783
F0.26111828914504875
F0.23415334166548807
F0.2621154603858806
F0.051227363674052895
F0.38534948325425944
F0.678622865587619
F0.9437048132519973
F0.8899538273886528
F0.9200279273007235
tp86
a(F0.6783141916783675
F0.9234985334909126
F0.028293146272015846
F0.29983383583499756
F0.17311714497305375
F0.42010389793170444
F0.39014129789046204
F0.7507597601082726
F0.31226184093101905
F0.027775215224874694
tp87
a(F0.1950752796641655
F0.7954521857301887
F0.5017324904140045
F0.43279245356323814
F0.6287846961036516
F0.8052502041964051
F0.29643924551549095
F0.7959643506496165
F0.6898811306693435
F0.7370360469417503
tp88
a(F0.9025468679198567
F0.7960815065583823
F0.9869786040278827
F0.7606417919348815
F0.552876835305159
F0.011618537688780739
F0.4396637953124152
F0.40863259755728765
F0.987912174618298
F0.9408808979886011
tp89
a(F0.28791412959537976
F0.6216060312298476
F0.3617461579047758
F0.33427957225286886
F0.06115951974841061
F0.43763956258853753
F0.9860245848645466
F0.22913637288939248
F0.9016744701961719
F0.9426624130457645
tp90
a(F0.7753218477072197
F0.009542776433396405
F0.4332577282711101
F0.8916815410169586
F0.8545943240152795
F0.4478973944738769
F0.09803673775718957
F0.8603190047908301
F0.82178335739169
F0.23935643489895042
tp91
a(F0.7067071887891216
F0.661260882811712
F0.6053913828238432
F0.3007210874783557
F0.09884800704165742
F0.29568784387352876
F0.7481300861572624
F0.7709834083187049
F0.3241422507132766
F0.700340763996158
tp92
a(F0.2777993832565213
F0.32613418071303124
F0.86903074345381
F0.30775618788755155
F0.06493951492462768
F0.7820844160690372
F0.05474329910074238
F0.3602516814638248
F0.6642252321383997
F0.0954817141585419
tp93
a(F0.3585621744520606
F0.5704656565378179
F0.8914623139228192
F0.5181619991542851
F0.2852443410048884
F0.9449795214277209
F0.2778235361588459
F0.5631172334113393
F0.8756105496456622
F0.6009404250440774
tp94
a(F0.8817788920820454
F0.669658109239016
F0.6086710484482267
F0.5103245140868614
F0.4935561530706575
F0.8696006826034353
F0.09289063243354512
F0.990868668933284
F0.33878789447628876
F0.23928415136414805
tp95
a(F0.5828047627087954
F0.6001853488955486
F0.03799169244469913
F0.601063887794439
F0.06685023518931621
F0.19732321711343492
F0.08884741206869684
F0.2154486547931479
F0.9660115959236486
F0.23713827179234104
tp96
a(F0.9159218940944909
F0.38371619089510267
F0.5223474825180001
F0.9925930382150697
F0.5798780310323712
F0.39302126359156
F0.9992811553089661
F0.9250566657635281
F0.9692513787578474
F0.5839281307644397
tp97
a(F0.3062728525796612
F0.39214093881237466
F0.9215083981960284
F0.1375817852375566
F0.6909228379118498
F0.958404867975431
F0.9635496306818341
F0.752162784157212
F0.7267729290898278
F0.23920719375765476
tp98
a(F0.008595431541882692
F0.5176705625372093
F0.12413274288883192
F0.6509669757072609
F0.7539374741631126
F0.6856869745429016
F0.5953841707575699
F0.8515214101133679
F0.7379609938372277
F0.30032924710155673
tp99
a(F0.4929210673952933
F0.5498213206191093
F0.6583985015823011
F0.8932821941645692
F0.5834601905971998
F0.639254578555234
F0.4235321218710085
F0.114099761220114
F0.8350530977294438
F0.005421997429625458
tp100
a(F0.33684678571552307
F0.06857435387293653
F0.7513347630006157
F0.8767141456286286
F0.16799146996553826
F0.022052458005464737
F0.5010537710080059
F0.31496219081994214
F0.36776052263849046
F0.32004883881736745
tp101
a(F0.17618420861303286
F0.09804469772904201
F0.0933234934549495
F0.35464846766314817
F0.4660915474885633
F0.8409910265753844
F0.479778529666833
F0.7294517413541415
F0.298507081124201
F0.34944400399187336
tp102
a(F0.2871143721889845
F0.9766009645888789
F0.7291676554423938
F0.22876009281992638
F0.5783426282485027
F0.8380112245868232
F0.465892339778317
F0.20492674583997372
F0.5494490250260258
F0.0683484501245899
tp103
a(F0.6041296460721252
F0.1337795227748929
F0.376310840936778
F0.9291271046357147
F0.503378314792435
F0.7663155588582891
F0.9218669974459899
F0.14069435435664934
F0.8498151986152228
F0.8419252457339321
tp104
a(F0.9771560432500304
F0.6435930485224347
F0.8193592135397295
F0.26893779952530805
F0.6615307757156572
F0.8454801490581856
F0.7624612348195956
F0.0699957208431371
F0.4223282446405293
F0.9532020560253931
tp105
a(F0.5105794901092531
F0.11318315402312606
F0.5119302389885817
F0.4317289468689688
F0.6861475006064525
F0.674242144296994
F0.9027409172434476
F0.359389801334413
F0.7641498012573901
F0.44673842506858974
tp106
a(F0.12766690429847893
F0.3340092932152223
F0.8488701327830215
F0.839733551944338
F0.41934310405163533
F0.7160617050197576
F0.21180547738265876
F0.3262275273230829
F0.8255314354106816
F0.40349270936728443
tp107
a(F0.8683825432873936
F0.30269747442062733
F0.0076201475754849035
F0.6677462251325083
F0.3871752510156161
F0.43211002126621034
F0.21122109184075666
F0.8520204949538158
F0.7584875424542288
F0.8260333542611559
tp108
a(F0.05765565172429965
F0.6159359186947898
F0.48106854498556684
F0.4604896582489678
F0.7322282101066655
F0.08360094788538786
F0.8774368697704485
F0.24231016276732842
F0.20260865830647157
F0.1819088728914784
tp109
a(F0.5513727172540016
F0.271993971747138
F0.23458627989099246
F0.07089618998284597
F0.6311645741708358
F0.6038035845598414
F0.16371540145570218
F0.32610350209958017
F0.9134361302575352
F0.10704211350126569
tp110
a(F0.5698223453907563
F0.23520248662629417
F0.8850084655985508
F0.22079277209171422
F0.0006995398452754875
F0.5793680619761435
F0.4445773886332658
F0.6694251164479811
F0.042277146451461856
F0.18087929826063387
tp111
a(F0.7609380936267894
F0.782862764205605
F0.3059029363570086
F0.16481355445476276
F0.7449345001517862
F0.6267611113648554
F0.47857671979978855
F0.7363226212442939
F0.38513315202493326
F0.13483320704331436
tp112
a(F0.3439256594875115
F0.38400581735136263
F0.5030361475999445
F0.6732444902719797
F0.3179743442798998
F0.6932852556855975
F0.4237578037401706
F0.7129798675555448
F0.47799875256514945
F0.7495924134445207
tp113
a(F0.8642072109665453
F0.3511386826341302
F0.30748771699244504
F0.3606744954837461
F0.07538902571683681
F0.7832426669273767
F0.7775840614209604
F0.7104635238727647
F0.4220694990431204
F0.6986409984299027
tp114
a(F0.8772188761625849
F0.10700846866086922
F0.29411394486610587
F0.17459995238807002
F0.2703151880248804
F0.6785539139566148
F0.22596806633608846
F0.7023240407466705
F0.643458268516629
F0.9206735521358842
tp115
a(F0.8343709977802373
F0.3057764246618694
F0.7815231496930941
F0.37178612759952223
F0.2760196446736839
F0.5709874778219187
F0.4802997603802657
F0.07555227251057961
F0.24577069558139497
F0.7009811174214392
tp116
a(F0.9721012220735477
F0.9060196751705121
F0.44556341130337107
F0.7682147044559025
F0.12326250747059009
F0.12437002027988198
F0.6855738863953534
F0.5112329456445807
F0.6428908983393145
F0.03932936951508581
tp117
a(F0.559184282476735
F0.7981361234570069
F0.7652505000710157
F0.9596596293982891
F0.4687813254122083
F0.20200631086409637
F0.05393848038924187
F0.18739483780302668
F0.1783197798711751
F0.48616457381787803
tp118
a(F0.3954600838338439
F0.08300277413396617
F0.02806011777936457
F0.6905063793018358
F0.5536065851895133
F0.951854441132071
F0.8241531695058567
F0.44550698888426743
F0.019526703397270806
F0.11974701056735682
tp119
a(F0.5641495287127359
F0.7298334117083043
F0.11138391231402833
F0.22865598268266962
F0.5793475155207436
F0.7090885367143835
F0.7099605502918367
F0.09003436360887018
F0.6494886782167628
F0.3715736484192049
tp120
a(F0.5241066837602338
F0.6582685472877314
F0.9118906494636329
F0.43302474757484377
F0.6749904751399982
F0.488388995165299
F0.3229248841851321
F0.4058347366756093
F0.26653184366452076
F0.46787504197808405
tp121
a(F0.96496497014376
F0.8166279965938827
F0.3880140291454879
F0.4223827710251531
F0.4577334138408691
F0.7626560440847405
F0.6818665966393315
F0.6482996129716677
F0.7632973752034525
F0.9877172912735988
tp122
a(F0.3105486530514602
F0.21941649640439276
F0.32459315863697424
F0.31176538122447095
F0.7923605778970555
F0.8826932376145686
F0.6832276913386159
F0.21460494997939106
F0.7808755886487613
F0.2750999094787656
tp123
a(F0.637320902412035
F0.5582176904633122
F0.22124935906185572
F0.8839794454754812
F0.8457523252911389
F0.8130474261059604
F0.9187471850552562
F0.1707541810422295
F0.9857107706160511
F0.9245200663793383
tp124
a(F0.837068212455269
F0.21376038113166285
F0.7756347926773333
F0.43669846718735394
F0.875611156124452
F0.8325119115745093
F0.33518225195852613
F0.02743469882043048
F0.15660881423629736
F0.30675937200139713
tp125
a(F0.7285836434098808
F0.5962239431090092
F0.470043647117961
F0.7208252554770798
F0.11425839395119208
F0.5538632566879627
F0.03212316188690967
F0.12978301392035108
F0.731799370899985
F0.8640199192373744
tp126
a(F0.37624149666705786
F0.09116067142608886
F0.22375732497732725
F0.8974676163447228
F0.07275336544622735
F0.024911319583276748
F0.6250732962099513
F0.16682216506837755
F0.8574510028040779
F0.5889653273603627
tp127
a(F0.7774894419129686
F0.06263641009918008
F0.6499967800543712
F0.4564184668244262
F0.0441060788125377
F0.35034404990053947
F0.01644978526600127
F0.124330925103744
F0.26890410503959794
F0.5100016715958181
tp128
a(F0.9785632594302252
F0.568089571800251
F0.20349983003037952
F0.06361772151494482
F0.19048880109093325
F0.9296395295338322
F0.8081650572800277
F0.5132449236822968
F0.9532903764156443
F0.11749098308100991
tp129
a(F0.6726128979799051
F0.8701318238280246
F0.13997522805891072
F0.11821675065730974
F0.520387260631893
F0.4152335244170149
F0.47770117482274166
F0.9325213099906786
F0.6543984423753183
F0.22851598275806617
tp130
a(F0.5903225087120162
F0.9800932460787328
F0.7953542277335413
F0.8188500308301215
F0.40536915155086806
F0.38098224409901327
F0.04842451339378939
F0.2734286933098953
F0.21197336200586592
F0.08595205617031809
tp131
a(F0.04779680066080283
F0.774351273972359
F0.9505521766497202
F0.002157054763890054
F0.6995467639239089
F0.7072963778241739
F0.1895569813646233
F0.18201933550923344
F0.5556287312523182
F0.3435234566328409
tp132
a(F0.4870004103464155
F0.5539820933661334
F0.5787481824765028
F0.32291899752894515
F0.7145409713053681
F0.02722261750013799
F0.2929568733697905
F0.3475970205197191
F0.2503558667955277
F0.872295675186764
tp133
a(F0.05030473488973919
F0.08161176002699877
F0.48960159504271994
F0.19760059570552013
F0.9895564526203178
F0.2591847707479523
F0.41361658444522986
F0.0739871800849391
F0.7785746237341062
F0.7596575118325445
tp134
a(F0.6156865958210799
F0.42850005865766394
F0.05393377917636366
F0.8471118953080551
F0.1564956235941335
F0.6966442253426769
F0.6099003305184492
F0.25479250012077337
F0.11156382307463752
F0.48274114027721704
tp135
a(F0.7468058599903874
F0.6099208636217084
F0.6224427194220619
F0.1358589399977702
F0.880017782565341
F0.8215750145143467
F0.012792820953593131
F0.39079254029910016
F0.6396514119444788
F0.08919165997815726
tp136
a(F0.524339789874951
F0.529345810553696
F0.8685369542178559
F0.616213947827571
F0.7241625943101576
F0.2986840782021799
F0.7961618738155549
F0.43300788168014404
F0.09224056653821022
F0.784535639995826
tp137
a(F0.6166647015172374
F0.508994241686122
F0.18707049932598485
F0.6859692209032665
F0.06454182461414792
F0.5761240543275586
F0.582390856852335
F0.7411180665862918
F0.492877528927656
F0.7406201549677378
tp138
a(F0.6790960883680475
F0.08625920192582437
F0.8029714682035094
F0.17096635593586396
F0.3822183225477571
F0.20472823474423452
F0.4902063830082034
F0.2182732968036203
F0.5467062827794921
F0.29455642297914064
tp139
a(F0.024110710700988136
F0.32887013538538723
F0.9848715971142947
F0.38089571318804716
F0.6058260984004618
F0.5900561104761056
F0.4348776508918947
F0.5779402823383561
F0.5290357393215314
F0.7445790460711919
tp140
a(F0.6002400598675612
F0.43285361128969546
F0.5274784181723767
F0.21685536082967838
F0.4399165564029054
F0.7481881614288951
F0.9558908890220225
F0.21115302653938472
F0.9046619632127804
F0.4526354414421938
tp141
a(F0.9161029257324225
F0.7229812547870024
F0.9175333050439793
F0.12055925003451395
F0.5372054345813473
F0.24929815404691247
F0.7772543439850801
F0.37413173954861556
F0.7289242394875476
F0.8785426902933278
tp142
a(F0.5094403903494621
F0.29820645835785353
F0.6224216000491894
F0.4441404302188775
F0.6480305855234032
F0.34960434507474436
F0.39170065250632635
F0.4609944628998749
F0.3565263499022373
F0.16935747346629837
tp143
a(F0.22151272627887209
F0.16177334743726413
F0.06666378765704428
F0.506818345234994
F0.8441580966121682
F0.9990449765928476
F0.27180166745475265
F0.7573110439534809
F0.8597309230755013
F0.6061105272093603
tp144
a(F0.498368406455199
F0.5371713524017996
F0.16790841210901852
F0.298083656179027
F0.5344740373186465
F0.2594168009359815
F0.5222944191522052
F0.11159843943969272
F0.7032610558921772
F0.9724721210246207
tp145
a(F0.36799554084945296
F0.8106478002709487
F0.7891262200991562
F0.10114650750888665
F0.5868094156398097
F0.8525048622531419
F0.6857304494168505
F0.973040475503289
F0.20402185671537665
F0.0788295679256299
tp146
a(F0.0013908171290006877
F0.9746196560725037
F0.5918071437785059
F0.12742088116588401
F0.5315474210057662
F0.9866625941398541
F0.8744836863818694
F0.27791236084243254
F0.33416282826290467
F0.19744544630129557
tp147
a(F0.6035619009623934
F0.3277165102003129
F0.19212187971120487
F0.9823200653262429
F0.3288220759296884
F0.474528132272359
F0.8722572889006015
F0.09505241979094736
F0.8078650720192262
F0.6805314698754209
tp148
a(F0.8240474378846725
F0.4554045061082582
F0.6081890050204467
F0.8827167618591008
F0.5771493649804154
F0.6929337434719145
F0.9689428719781974
F0.9581337944344243
F0.242614805988296
F0.70025035854215
tp149
a(F0.09307256010465548
F0.08829599384319098
F0.7367758605020943
F0.46071174741406695
F0.03299989481570109
F0.2700235339012703
F0.9967072745238699
F0.677011407582554
F0.17571178207943516
F0.613328009868148
tp150
a(F0.941913915749777
F0.049701892793149516
F0.9951911693484464
F0.27634122115173687
F0.936138613959533
F0.035434848244640715
F0.3214772687095597
F0.11701467654678954
F0.31398252379678115
F0.10815440359191741
tp151
a(F0.5861995517650056
F0.3243846018256854
F0.7460791558983568
F0.0066170365175795
F0.8350514179136447
F0.42671471415665574
F0.21255303370839607
F0.821681896158425
F0.3368091211170682
F0.8715214944217449
tp152
a(F0.8548833887701779
F0.9017901414604426
F0.9942708132537253
F0.06454650785463045
F0.9164863780821427
F0.613472375801403
F0.12354217761488917
F0.7296356050307155
F0.36430779438154537
F0.9786376971533621
tp153
a(F0.2967205677495577
F0.47926185710800395
F0.5982937164140298
F0.5917075194836003
F0.9531761784891774
F0.46148131823464345
F0.5330387492801786
F0.6783833747492005
F0.5701810751395429
F0.34677198151839894
tp154
a(F0.6813359344555084
F0.6896676503079381
F0.17760906806890997
F0.39445355796475556
F0.08593600544945301
F0.7714665514267275
F0.43460305252958975
F0.9274998062896083
F0.56461178831836
F0.8541579498454189
tp155
a(F0.15294962935790846
F0.3117326965581888
F0.6803127778235375
F0.9880674868959736
F0.4890952458746145
F0.9227743138515846
F0.950068852798666
F0.8732677867036224
F0.6116856267366976
F0.7121023480682956
tp156
a(F0.11648251088242134
F0.9285221306323695
F0.6429418994237135
F0.7067488529806389
F0.44925263550494443
F0.40000780563861804
F0.6941226737160264
F0.7787008365492674
F0.22161258389528748
F0.670532096035535
tp157
a(F0.33925543074898035
F0.9617864254049009
F0.7438317138733799
F0.3671531296135502
F0.4962707585091275
F0.6633323653721318
F0.9671288769981555
F0.2926351971396831
F0.5403860171766582
F0.1818496567475536
tp158
a(F0.10853310266227756
F0.31236926874074444
F0.5389926290506336
F0.555910430208482
F0.627406164460517
F0.9404242521925307
F0.5892602177824935
F0.1564322724001992
F0.03831756032846334
F0.20544440357104332
tp159
a(F0.8266636535652923
F0.01681957684816915
F0.8660600361528064
F0.9656712012419649
F0.04221081776230495
F0.5843747913922424
F0.15911366337876498
F0.21338478230509494
F0.7840713729235262
F0.8040772221145593
tp160
a(F0.6873981854090699
F0.7085136197598197
F0.28714105922778943
F0.5088238085859731
F0.05162303800623991
F0.200776400980348
F0.6320379817521801
F0.5120725267439484
F0.996879362663602
F0.03625373813896959
tp161
a(F0.5809677096307713
F0.8188708145911339
F0.5933611370967747
F0.9021740056390755
F0.3026553298096504
F0.4083607949085223
F0.3027431413673236
F0.8498704686411498
F0.61219203944927
F0.7998475087969982
tp162
a(F0.8096676559238476
F0.8952375221514227
F0.5225676410660542
F0.26230692922985643
F0.10576296300673405
F0.5279971924363682
F0.1536896886321345
F0.45985369258312236
F0.4806836381563474
F0.8133315267971436
tp163
a(F0.9375696468695851
F0.4936091887782036
F0.13633306910477483
F0.32759806197095565
F0.5961273172361581
F0.7750937946458186
F0.4690495347423178
F0.005617098638455831
F0.786999338216994
F0.45909556023606657
tp164
a(F0.19036476475059594
F0.9247891494657863
F0.40851777708232906
F0.7558312301957715
F0.09413417615571762
F0.19687254290529277
F0.3832192375123369
F0.6269239991295604
F0.7360107434699633
F0.6811507688991972
tp165
a(F0.529108847786219
F0.9125975883311847
F0.11698890525926486
F0.7650792740994643
F0.07576829822727826
F0.24154007219964657
F0.5963544952962192
F0.7866677516922171
F0.7013456622300323
F0.543779312031705
tp166
a(F0.23914467018396857
F0.2852909275888581
F0.6662929004472948
F0.7133960995133307
F0.2513338910078481
F0.723979932008579
F0.34167399101750995
F0.5144183648886549
F0.06995007633109507
F0.8761408769047454
tp167
a(F0.5288667082250686
F0.788421119972104
F0.7626911334570108
F0.2564704388485103
F0.19382042923669562
F0.7089006536010551
F0.11344545986299182
F0.9962398578053359
F0.28838004866332245
F0.21909772916497472
tp168
a(F0.15628174431993092
F0.8512208507255618
F0.7690666242867628
F0.4565353099985233
F0.7175478519024044
F0.642775097007876
F0.8556321515268733
F0.7150905580911807
F0.3173182142844446
F0.9140811497001553
tp169
a(F0.02051828243724585
F0.5013962337430055
F0.6293770887947481
F0.3793383880615564
F0.6274826978114276
F0.016555027475869455
F0.027072585349296907
F0.013884259819736844
F0.22788650530123844
F0.520905133453969
tp170
a(F0.3322946420762627
F0.9825376745159762
F0.53115418756476
F0.3736070606322994
F0.20580266085631704
F0.4875236568780442
F0.2355273107714303
F0.9903565476927895
F0.5189038779701388
F0.8633402946267028
tp171
a(F0.31345069065625186
F0.5144856246454155
F0.8917564113888633
F0.6480647703838938
F0.05389838345252429
F0.7349367394666012
F0.15107091075528012
F0.6892033958964187
F0.8030307367119054
F0.5667154296708011
tp172
a(F0.4267015856370394
F0.664218255919921
F0.9977686766218784
F0.4009801425865729
F0.08141029030290337
F0.9424325797781394
F0.7031585114424247
F0.4738420603922908
F0.7547372355314416
F0.9277609768230705
tp173
a(F0.9087989265158691
F0.8084725090100483
F0.21073577176925462
F0.01541598714206982
F0.3325010686726848
F0.4731867946427397
F0.7176098095485532
F0.04382783117845401
F0.85820924227813
F0.7801902249273954
tp174
a(F0.01524962602799007
F0.9610298068047879
F0.6930297894346109
F0.13676011644898212
F0.7508188656493625
F0.7263995323731226
F0.22814713425407018
F0.39757910509137095
F0.8701177376181126
F0.3851646763133745
tp175
a(F0.9614760897872059
F0.33076039248879585
F0.976819925314245
F0.4609980127526282
F0.7809850963675794
F0.8151746066133564
F0.5382653906161554
F0.32142874123840215
F0.7586024532922184
F0.49080665800069345
tp176
a(F0.4522585439178577
F0.45053971455626507
F0.17852591511624882
F0.34285365986379146
F0.5539683361124427
F0.13082923846329886
F0.41459282688309085
F0.45847367923143145
F0.1215737828353527
F0.40052799198859956
tp177
a(F0.10055606008350426
F0.20737488235754464
F0.5768706538573101
F0.8411162977985455
F0.1763064893204258
F0.19683085402707945
F0.5223853038156245
F0.6111956277682099
F0.6198578376563093
F0.3838558600363411
tp178
a(F0.6750078107442621
F0.5516497717883929
F0.10571072049622576
F0.4508381058797529
F0.05476723493571778
F0.5576958759619874
F0.8964819020641343
F0.8235131721741968
F0.6521938992068393
F0.3664163282974521
tp179
a(F0.9984917907271295
F0.7996863877720126
F0.048918603913841174
F0.7491154125231716
F0.42974720444441383
F0.3888822464116021
F0.8562177927286376
F0.30499197414629653
F0.19589811991564876
F0.6665981246368506
tp180
a(F0.6119581099994617
F0.9876840328342233
F0.6237449423375526
F0.020253591146323746
F0.05598086432738025
F0.19355809858114503
F0.9739796848523894
F0.6777295379397814
F0.7163749227000157
F0.8466082960731434
tp181
a(F0.6830370859743626
F0.9321717575479308
F0.5653345809170577
F0.5270124446330421
F0.08247958214793405
F0.09552560005698374
F0.6073964996383743
F0.13880255734750235
F0.09451211956286087
F0.5169004228959033
tp182
a(F0.6724788453072894
F0.5639461485922452
F0.6473523572421981
F0.7997933176681828
F0.21355951137058848
F0.4785938899537907
F0.9996430855976162
F0.5386494304569164
F0.09360013973265624
F0.06798811621057776
tp183
a(F0.2950004158281323
F0.6661309475455098
F0.6877403876970041
F0.6612173896936975
F0.6180710535457783
F0.8206554367572279
F0.08216532667829468
F0.4687966529791484
F0.13504914353925979
F0.9314406263195145
tp184
a(F0.7821273654621634
F0.07407048871527122
F0.12133591215386996
F0.2110883949083162
F0.5338744727263829
F0.8129345206158269
F0.7632516405684997
F0.7115640348879538
F0.3003235454899842
F0.25678905249468187
tp185
a(F0.99509521862663
F0.460575061119734
F0.1532325646386824
F0.9559348141617579
F0.3790010743425404
F0.760464844611213
F0.5074255873719561
F0.9880131323432687
F0.9628948935704236
F0.7412495780564722
tp186
a(F0.7608920427216417
F0.16257981138738709
F0.011117016917887135
F0.6556074630804709
F0.8233492903849511
F0.06795360212018398
F0.5646989405520083
F0.3153537923396078
F0.6540044753380353
F0.4756973054844651
tp187
a(F0.4967233768724696
F0.28819087781516173
F0.7260756881985003
F0.2527235355104407
F0.42164963836342073
F0.7994145469632561
F0.9153755541903805
F0.2967832302466259
F0.36443493293647455
F0.0864370778641097
tp188
a(F0.0981069464771418
F0.977889305921666
F0.8254520715978299
F0.14723752514729327
F0.09303280176260231
F0.709394076706594
F0.13312541060727567
F0.04719635249474208
F0.9252325020241712
F0.6086573082099037
tp189
a(F0.3050797029336766
F0.5365311347519427
F0.4296291878570333
F0.7770625554641823
F0.007718402734656404
F0.0827150197920774
F0.851426512926794
F0.46605076515960764
F0.32050365931524494
F0.9337552458859768
tp190
a(F0.6836681743880362
F0.9346794909481945
F0.9651740289099774
F0.4147397846851457
F0.4932365053925507
F0.8700812123183482
F0.3220688106430649
F0.9186686001118277
F0.3669293895614253
F0.2940375633645024
tp191
a(F0.09854530192978328
F0.7290166958752458
F0.4828693394035162
F0.2766132104509871
F0.8842909281032536
F0.5212229994035631
F0.7802361254215081
F0.2855651211811351
F0.6814046578774113
F0.054519977596073854
tp192
a(F0.5275081920877934
F0.6067468285299712
F0.25337051777916164
F0.7960577291192014
F0.051512825817210284
F0.7268080401238022
F0.9352849235115047
F0.6597757837847635
F0.5681461847431074
F0.9876971625189525
tp193
a(F0.9827712346538826
F0.8454041878384975
F0.8163998102617633
F0.414426960704812
F0.3103394792423614
F0.49397334499842827
F0.7604934996614712
F0.31357460130228654
F0.4558808936819766
F0.031102733727060516
tp194
a(F0.2126671066656599
F0.9885343953031691
F0.9918983583375236
F0.640656302275974
F0.29803456919733295
F0.033231108556403655
F0.6734530473232309
F0.07880620445128428
F0.14172411614822422
F0.525194650264448
tp195
a(F0.10948995750249613
F0.4036319664119402
F0.4270768006326031
F0.26196660825332285
F0.5060666360430764
F0.617687092177973
F0.2674368540390414
F0.5914352305221368
F0.6816242684779782
F0.8216764463856486
tp196
a(F0.2551158019607641
F0.8945430694073222
F0.6998722769354384
F0.9414558591754751
F0.09131546431100601
F0.8169890932080611
F0.513686511021164
F0.918044874232022
F0.03853858040122482
F0.05524160563646996
tp197
a(F0.5190883902055826
F0.9215142799189552
F0.4494759451608087
F0.7708798549850082
F0.4600478578583461
F0.14548379401026323
F0.19296817771333163
F0.2382328737434678
F0.9146153508501275
F0.9003686888717717
tp198
a(F0.14014008366299868
F0.08043603989382953
F0.07032753256567659
F0.04645691629534521
F0.32433848357942785
F0.4804410171631385
F0.8419943489798137
F0.13732841625605274
F0.6277706075723691
F0.40600959017127336
tp199
a(F0.9223386419269936
F0.45481135921948845
F0.5600340129752722
F0.7245475020730462
F0.7718872295076632
F0.3534369698583164
F0.7387529584203599
F0.660152120281686
F0.6322565407495584
F0.1660957151699014
tp200
a.