(lp0
((F0.3
S'TwoPoint'
p1
S'dominanceCount'
p2
I50
I40
tp3
(F-19664.37606885203
tp4
tp5
a((F0.1
S'uniform'
p6
S'continuousDominanceLoss'
p7
I150
I80
tp8
(F-175986.1811271734
tp9
tp10
a((F0.1
g6
S'dominanceRank'
p11
I50
I40
tp12
(F-19587.473534779292
tp13
tp14
a((F0.1
S'singlePoint'
p15
g11
I50
I20
tp16
(F-19744.153131591902
tp17
tp18
a((F0.3
g1
g7
I100
I20
tp19
(F-79274.23302085193
tp20
tp21
a((F0.1
g6
g11
I150
I80
tp22
(F-175884.04394091413
tp23
tp24
a((F0.5
g1
g2
I150
I80
tp25
(F-177267.93129728042
tp26
tp27
a((F0.1
g1
g2
I100
I40
tp28
(F-78467.0513182178
tp29
tp30
a((F0.1
g1
g2
I50
I80
tp31
(F-19530.80327656639
tp32
tp33
a((F0.3
g15
g11
I100
I20
tp34
(F-79185.09168687851
tp35
tp36
a((F0.3
g15
g11
I150
I80
tp37
(F-176298.24841004578
tp38
tp39
a((F0.5
g6
g2
I100
I20
tp40
(F-79288.36250206821
tp41
tp42
a((F0.5
g1
g7
I150
I40
tp43
(F-177999.22719643492
tp44
tp45
a((F0.5
g6
g7
I150
I20
tp46
(F-178351.55835372224
tp47
tp48
a((F0.5
g1
g11
I50
I20
tp49
(F-19779.990115881927
tp50
tp51
a((F0.5
g1
g2
I100
I40
tp52
(F-79185.01684990525
tp53
tp54
a((F0.3
g1
g2
I100
I20
tp55
(F-79171.74434369488
tp56
tp57
a((F0.5
g15
g7
I150
I80
tp58
(F-177265.17463913516
tp59
tp60
a((F0.5
g15
g2
I50
I80
tp61
(F-19669.564663378103
tp62
tp63
a((F0.1
g15
g2
I150
I20
tp64
(F-177656.87440187126
tp65
tp66
a((F0.1
g6
g7
I100
I40
tp67
(F-78409.15263390908
tp68
tp69
a((F0.5
g6
g2
I150
I20
tp70
(F-178388.68834862602
tp71
tp72
a((F0.3
g6
g7
I100
I40
tp73
(F-78657.17826104345
tp74
tp75
a((F0.3
g6
g11
I150
I40
tp76
(F-176904.39671308504
tp77
tp78
a((F0.3
g6
g11
I150
I20
tp79
(F-178184.3788268863
tp80
tp81
a((F0.3
g15
g2
I50
I40
tp82
(F-19641.103952448742
tp83
tp84
a((F0.3
g6
g11
I150
I80
tp85
(F-176183.18736200815
tp86
tp87
a((F0.3
g6
g11
I100
I20
tp88
(F-79309.99478002096
tp89
tp90
a((F0.5
g15
g7
I100
I80
tp91
(F-78787.78238035041
tp92
tp93
a((F0.3
g1
g7
I100
I40
tp94
(F-78752.15246308208
tp95
tp96
a((F0.1
g6
g11
I150
I40
tp97
(F-176043.39083442985
tp98
tp99
a((F0.1
g6
g11
I50
I80
tp100
(F-19543.329144066327
tp101
tp102
a((F0.3
g6
g11
I50
I40
tp103
(F-19598.877694591567
tp104
tp105
a((F0.3
g6
g7
I100
I20
tp106
(F-79166.80229189497
tp107
tp108
a((F0.5
g6
g11
I50
I20
tp109
(F-19777.289122690727
tp110
tp111
a((F0.1
g15
g11
I50
I20
tp112
(F-19744.153131591902
tp113
tp114
a((F0.5
g6
g2
I50
I80
tp115
(F-19644.091551574224
tp116
tp117
a((F0.5
g15
g2
I150
I40
tp118
(F-177858.61554309865
tp119
tp120
a((F0.5
g6
g2
I150
I20
tp121
(F-178388.68834862602
tp122
tp123
a((F0.1
g1
g11
I150
I20
tp124
(F-177413.6197943732
tp125
tp126
a((F0.3
g15
g11
I100
I20
tp127
(F-79185.09168687851
tp128
tp129
a((F0.5
g15
g2
I100
I20
tp130
(F-79294.28040889316
tp131
tp132
a((F0.5
g15
g11
I50
I20
tp133
(F-19762.574485380395
tp134
tp135
a((F0.3
g15
g2
I150
I40
tp136
(F-177011.84294146593
tp137
tp138
a((F0.1
g15
g11
I50
I20
tp139
(F-19744.153131591902
tp140
tp141
a((F0.5
g6
g11
I100
I40
tp142
(F-79147.35427581928
tp143
tp144
a((F0.5
g6
g7
I100
I20
tp145
(F-79301.50078318844
tp146
tp147
a((F0.1
g1
g11
I150
I20
tp148
(F-177413.6197943732
tp149
tp150
a((F0.1
g6
g11
I100
I80
tp151
(F-78224.12765487014
tp152
tp153
a((F0.5
g6
g2
I50
I20
tp154
(F-19782.38145172925
tp155
tp156
a.