(lp0
((F0.1
S'singlePoint'
p1
S'dominanceRank'
p2
I150
I20
tp3
(F-86417.98636352611
tp4
tp5
a((F0.5
S'TwoPoint'
p6
g2
I100
I20
tp7
(F-38320.966240949965
tp8
tp9
a((F0.3
g1
S'dominanceCount'
p10
I100
I40
tp11
(F-38322.014786110325
tp12
tp13
a((F0.1
g6
g2
I100
I40
tp14
(F-38307.37612629652
tp15
tp16
a((F0.1
S'uniform'
p17
S'continuousDominanceLoss'
p18
I100
I80
tp19
(F-37050.9893945962
tp20
tp21
a((F0.5
g1
g10
I100
I80
tp22
(F-38330.93351541624
tp23
tp24
a((F0.5
g6
g10
I150
I20
tp25
(F-86503.01376499954
tp26
tp27
a((F0.5
g6
g10
I150
I80
tp28
(F-86470.6419907463
tp29
tp30
a((F0.1
g17
g18
I100
I20
tp31
(F-37051.633962640226
tp32
tp33
a((F0.1
g6
g10
I150
I80
tp34
(F-86492.39465662716
tp35
tp36
a((F0.5
g6
g10
I150
I80
tp37
(F-86470.6419907463
tp38
tp39
a((F0.3
g1
g2
I100
I20
tp40
(F-38315.16751941241
tp41
tp42
a((F0.1
g6
g10
I150
I40
tp43
(F-88614.61912577985
tp44
tp45
a((F0.1
g1
g10
I100
I20
tp46
(F-38331.63244180234
tp47
tp48
a((F0.3
g1
g2
I150
I20
tp49
(F-86427.80625024025
tp50
tp51
a((F0.5
g6
g2
I150
I20
tp52
(F-88797.05511552424
tp53
tp54
a((F0.3
g1
g10
I150
I80
tp55
(F-86492.34828410379
tp56
tp57
a((F0.1
g17
g2
I100
I20
tp58
(F-38296.82493916995
tp59
tp60
a((F0.1
g6
g10
I100
I80
tp61
(F-38343.734143088746
tp62
tp63
a((F0.3
g1
g2
I150
I20
tp64
(F-86427.80625024025
tp65
tp66
a((F0.1
g1
g2
I100
I80
tp67
(F-38306.63839160271
tp68
tp69
a((F0.5
g17
g10
I150
I20
tp70
(F-86491.36909891202
tp71
tp72
a((F0.3
g1
g2
I150
I20
tp73
(F-86427.80625024025
tp74
tp75
a((F0.1
g1
g10
I150
I80
tp76
(F-86432.78746914273
tp77
tp78
a((F0.1
g6
g10
I150
I40
tp79
(F-88614.61912577985
tp80
tp81
a((F0.3
g1
g10
I100
I40
tp82
(F-38322.014786110325
tp83
tp84
a((F0.1
g17
g2
I150
I20
tp85
(F-86427.5345060683
tp86
tp87
a((F0.3
g1
g10
I150
I80
tp88
(F-86492.34828410379
tp89
tp90
a((F0.3
g17
g10
I150
I20
tp91
(F-86412.62914055133
tp92
tp93
a((F0.5
g6
g2
I150
I20
tp94
(F-88797.05511552424
tp95
tp96
a((F0.1
g1
g10
I50
I80
tp97
(F-9589.594989272866
tp98
tp99
a((F0.1
g17
g10
I50
I40
tp100
(F-9611.353801304123
tp101
tp102
a((F0.1
g17
g2
I150
I20
tp103
(F-86427.5345060683
tp104
tp105
a((F0.5
g17
g10
I50
I80
tp106
(F-9590.355016692542
tp107
tp108
a((F0.3
g17
g2
I150
I40
tp109
(F-88770.80421905276
tp110
tp111
a((F0.1
g1
g2
I150
I40
tp112
(F-86444.81376432166
tp113
tp114
a((F0.5
g6
g2
I150
I20
tp115
(F-88797.05511552424
tp116
tp117
a((F0.3
g1
g10
I150
I40
tp118
(F-86469.90934545467
tp119
tp120
a((F0.5
g1
g2
I150
I20
tp121
(F-86486.63922462358
tp122
tp123
a((F0.1
g1
g10
I100
I80
tp124
(F-38262.383909058684
tp125
tp126
a((F0.1
g1
g2
I50
I20
tp127
(F-9624.208121631507
tp128
tp129
a((F0.3
g17
g10
I150
I80
tp130
(F-86494.14027462981
tp131
tp132
a((F0.1
g6
g10
I150
I40
tp133
(F-88614.61912577985
tp134
tp135
a((F0.1
g1
g10
I150
I20
tp136
(F-88544.43212994603
tp137
tp138
a((F0.3
g1
g10
I150
I40
tp139
(F-86469.90934545467
tp140
tp141
a((F0.3
g17
g2
I100
I80
tp142
(F-38333.89286952959
tp143
tp144
a((F0.1
g1
g2
I150
I80
tp145
(F-86432.58433717229
tp146
tp147
a((F0.1
g17
g10
I100
I40
tp148
(F-38453.996693259556
tp149
tp150
a((F0.1
g1
g10
I150
I40
tp151
(F-88765.56874636027
tp152
tp153
a((F0.1
g6
g2
I100
I80
tp154
(F-38315.620967890995
tp155
tp156
a.