(lp0
((F0.1
S'uniform'
p1
S'continuousDominanceLoss'
p2
I100
I20
tp3
(F-79999.80440373678
tp4
tp5
a((F0.3
S'TwoPoint'
p6
g2
I50
I20
tp7
(F-19999.916117458455
tp8
tp9
a((F0.1
g6
S'dominanceRank'
p10
I100
I40
tp11
(F-79999.80440373678
tp12
tp13
a((F0.1
g6
S'dominanceCount'
p14
I150
I80
tp15
(F-179999.18459282292
tp16
tp17
a((F0.3
g1
g14
I50
I20
tp18
(F-19999.581490776112
tp19
tp20
a((F0.1
S'singlePoint'
p21
g14
I150
I40
tp22
(F-179999.18459282292
tp23
tp24
a((F0.3
g6
g2
I150
I80
tp25
(F-179999.18459282292
tp26
tp27
a((F0.5
g1
g10
I100
I80
tp28
(F-79999.80440373678
tp29
tp30
a((F0.3
g21
g2
I150
I40
tp31
(F-179999.18459282297
tp32
tp33
a((F0.1
g1
g10
I150
I20
tp34
(F-179999.18459282292
tp35
tp36
a((F0.1
g6
g14
I150
I80
tp37
(F-179999.18459282292
tp38
tp39
a((F0.1
g6
g2
I50
I80
tp40
(F-19999.916117458455
tp41
tp42
a((F0.5
g6
g2
I50
I40
tp43
(F-19999.91611745846
tp44
tp45
a((F0.5
g1
g14
I100
I20
tp46
(F-79999.80440373678
tp47
tp48
a((F0.3
g6
g2
I50
I80
tp49
(F-19999.916117458455
tp50
tp51
a((F0.5
g1
g2
I150
I20
tp52
(F-179999.18459282292
tp53
tp54
a((F0.1
g21
g2
I50
I40
tp55
(F-19999.916117458455
tp56
tp57
a((F0.1
g6
g10
I150
I20
tp58
(F-179999.18459282292
tp59
tp60
a((F0.3
g6
g2
I50
I40
tp61
(F-19999.91611745846
tp62
tp63
a((F0.5
g21
g10
I100
I20
tp64
(F-79999.80440373678
tp65
tp66
a((F0.1
g21
g2
I100
I80
tp67
(F-79999.80440373678
tp68
tp69
a((F0.3
g6
g14
I50
I80
tp70
(F-19999.916117458455
tp71
tp72
a((F0.1
g1
g2
I50
I40
tp73
(F-19999.916117458455
tp74
tp75
a((F0.5
g1
g2
I150
I80
tp76
(F-179995.93211656617
tp77
tp78
a((F0.5
g1
g2
I50
I80
tp79
(F-19999.916117458455
tp80
tp81
a((F0.1
g21
g2
I50
I20
tp82
(F-19999.91611745846
tp83
tp84
a((F0.1
g1
g10
I150
I40
tp85
(F-179999.18459282292
tp86
tp87
a((F0.3
g1
g10
I150
I20
tp88
(F-179999.18459282292
tp89
tp90
a((F0.3
g6
g14
I150
I80
tp91
(F-179999.18459282292
tp92
tp93
a((F0.3
g1
g2
I50
I40
tp94
(F-19999.916117458455
tp95
tp96
a((F0.5
g21
g2
I50
I80
tp97
(F-19999.916117458455
tp98
tp99
a((F0.3
g21
g14
I150
I20
tp100
(F-179993.08486962022
tp101
tp102
a((F0.3
g1
g2
I150
I40
tp103
(F-179999.18459282292
tp104
tp105
a((F0.3
g1
g14
I100
I20
tp106
(F-79999.80440373678
tp107
tp108
a((F0.1
g21
g14
I100
I80
tp109
(F-79999.02410550907
tp110
tp111
a((F0.3
g21
g2
I50
I20
tp112
(F-19999.916117458455
tp113
tp114
a((F0.5
g21
g10
I150
I40
tp115
(F-179999.18459282292
tp116
tp117
a((F0.1
g21
g14
I50
I20
tp118
(F-19999.581490776112
tp119
tp120
a((F0.5
g21
g10
I150
I20
tp121
(F-179995.93211656614
tp122
tp123
a((F0.1
g1
g10
I150
I80
tp124
(F-179999.18459282292
tp125
tp126
a((F0.1
g1
g2
I150
I40
tp127
(F-179999.18459282292
tp128
tp129
a((F0.5
g6
g14
I100
I80
tp130
(F-79999.80440373678
tp131
tp132
a((F0.1
g1
g2
I100
I80
tp133
(F-79999.80440373678
tp134
tp135
a((F0.5
g6
g10
I150
I40
tp136
(F-179993.08486962022
tp137
tp138
a((F0.5
g21
g14
I100
I40
tp139
(F-79999.02410550907
tp140
tp141
a((F0.1
g6
g2
I150
I20
tp142
(F-179999.18459282292
tp143
tp144
a((F0.3
g21
g10
I50
I40
tp145
(F-19999.916117458455
tp146
tp147
a((F0.1
g6
g2
I100
I20
tp148
(F-79999.80440373678
tp149
tp150
a((F0.1
g1
g10
I100
I80
tp151
(F-79999.80440373678
tp152
tp153
a((F0.1
g21
g10
I150
I20
tp154
(F-179999.18459282292
tp155
tp156
a.