(lp0
((F0.3
S'TwoPoint'
p1
S'dominanceRank'
p2
I150
I40
tp3
(F-130364.19660999672
tp4
tp5
a((F0.3
S'singlePoint'
p6
S'dominanceCount'
p7
I150
I20
tp8
(F-130366.29859938372
tp9
tp10
a((F0.1
g1
g2
I50
I80
tp11
(F-14433.105444554243
tp12
tp13
a((F0.1
S'uniform'
p14
g7
I150
I20
tp15
(F-130444.92684029626
tp16
tp17
a((F0.1
g1
g7
I100
I40
tp18
(F-57811.360317369465
tp19
tp20
a((F0.5
g1
g2
I150
I40
tp21
(F-130349.65090563713
tp22
tp23
a((F0.3
g1
g2
I150
I20
tp24
(F-130347.81817338955
tp25
tp26
a((F0.1
g14
g7
I150
I80
tp27
(F-130365.11466180548
tp28
tp29
a((F0.5
g1
S'continuousDominanceLoss'
p30
I150
I80
tp31
(F-126642.48937532218
tp32
tp33
a((F0.3
g14
g2
I150
I40
tp34
(F-130377.32642181896
tp35
tp36
a((F0.1
g14
g30
I150
I20
tp37
(F-126642.5186526365
tp38
tp39
a((F0.5
g6
g7
I50
I40
tp40
(F-14436.068275472255
tp41
tp42
a((F0.1
g14
g7
I150
I80
tp43
(F-130365.11466180548
tp44
tp45
a((F0.1
g6
g7
I100
I80
tp46
(F-58069.08793596316
tp47
tp48
a((F0.3
g1
g2
I150
I80
tp49
(F-130352.77496798313
tp50
tp51
a((F0.3
g14
g7
I150
I20
tp52
(F-130343.34119477043
tp53
tp54
a((F0.5
g6
g2
I150
I80
tp55
(F-130334.07876930479
tp56
tp57
a((F0.1
g14
g30
I100
I80
tp58
(F-56165.84468653906
tp59
tp60
a((F0.3
g14
g2
I150
I40
tp61
(F-130377.32642181896
tp62
tp63
a((F0.1
g14
g2
I150
I20
tp64
(F-130339.84729720233
tp65
tp66
a((F0.1
g1
g2
I100
I40
tp67
(F-57815.04238747081
tp68
tp69
a((F0.3
g6
g7
I150
I40
tp70
(F-130361.7409242051
tp71
tp72
a((F0.5
g6
g2
I150
I80
tp73
(F-130334.07876930479
tp74
tp75
a((F0.3
g14
g2
I100
I20
tp76
(F-57817.01959196128
tp77
tp78
a((F0.1
g1
g7
I150
I20
tp79
(F-130353.15024103057
tp80
tp81
a((F0.5
g6
g30
I150
I80
tp82
(F-126635.85637403635
tp83
tp84
a((F0.1
g1
g30
I100
I40
tp85
(F-56165.84468653906
tp86
tp87
a((F0.1
g14
g2
I50
I20
tp88
(F-14430.10993192511
tp89
tp90
a((F0.3
g6
g30
I150
I40
tp91
(F-126641.9067411758
tp92
tp93
a((F0.1
g1
g2
I100
I40
tp94
(F-57815.04238747081
tp95
tp96
a((F0.1
g6
g2
I50
I20
tp97
(F-14435.596373652517
tp98
tp99
a((F0.1
g6
g2
I150
I20
tp100
(F-130382.08443443301
tp101
tp102
a((F0.3
g6
g7
I50
I20
tp103
(F-14430.797913281884
tp104
tp105
a((F0.5
g14
g7
I150
I80
tp106
(F-130341.04102783151
tp107
tp108
a((F0.5
g1
g7
I50
I40
tp109
(F-14433.637888392344
tp110
tp111
a((F0.5
g6
g2
I150
I40
tp112
(F-130344.97703778691
tp113
tp114
a((F0.1
g1
g7
I50
I20
tp115
(F-14451.47744489972
tp116
tp117
a((F0.5
g1
g2
I150
I80
tp118
(F-130375.1167957983
tp119
tp120
a((F0.5
g1
g7
I100
I80
tp121
(F-57810.30691342328
tp122
tp123
a((F0.1
g14
g2
I150
I40
tp124
(F-130282.13362709002
tp125
tp126
a((F0.1
g6
g2
I50
I20
tp127
(F-14435.596373652517
tp128
tp129
a((F0.5
g14
g7
I50
I40
tp130
(F-14432.498846695216
tp131
tp132
a((F0.1
g14
g30
I100
I20
tp133
(F-56165.78129359719
tp134
tp135
a((F0.3
g1
g2
I150
I40
tp136
(F-130364.19660999672
tp137
tp138
a((F0.5
g6
g2
I50
I80
tp139
(F-14432.318036635541
tp140
tp141
a((F0.3
g6
g2
I150
I20
tp142
(F-130353.47718972116
tp143
tp144
a((F0.1
g6
g2
I150
I20
tp145
(F-130382.08443443301
tp146
tp147
a((F0.1
g14
g7
I100
I20
tp148
(F-57884.369519020605
tp149
tp150
a((F0.3
g1
g7
I50
I80
tp151
(F-14491.970831297718
tp152
tp153
a((F0.3
g1
g7
I150
I20
tp154
(F-130353.49918904979
tp155
tp156
a.