(lp0
((F0.3
S'TwoPoint'
p1
S'continuousDominanceLoss'
p2
I50
I20
tp3
(F-19999.99289004744
tp4
tp5
a((F0.3
g1
S'dominanceCount'
p6
I50
I40
tp7
(F-19999.96285501144
tp8
tp9
a((F0.1
S'uniform'
p10
g2
I50
I20
tp11
(F-19999.988277180604
tp12
tp13
a((F0.3
g10
g6
I150
I20
tp14
(F-179999.9418692879
tp15
tp16
a((F0.5
g1
g2
I150
I20
tp17
(F-179999.8158050074
tp18
tp19
a((F0.1
g10
g6
I100
I20
tp20
(F-79999.96802743693
tp21
tp22
a((F0.1
g1
S'dominanceRank'
p23
I100
I40
tp24
(F-79999.98060849064
tp25
tp26
a((F0.5
g10
g6
I100
I20
tp27
(F-79999.96802743693
tp28
tp29
a((F0.1
g10
g2
I50
I80
tp30
(F-19999.988277180604
tp31
tp32
a((F0.5
g1
g2
I100
I80
tp33
(F-79999.96802743693
tp34
tp35
a((F0.1
S'singlePoint'
p36
g6
I50
I20
tp37
(F-19999.96285501144
tp38
tp39
a((F0.5
g1
g23
I100
I20
tp40
(F-79999.89869096511
tp41
tp42
a((F0.5
g10
g6
I50
I40
tp43
(F-19999.96285501144
tp44
tp45
a((F0.1
g1
g23
I100
I20
tp46
(F-79999.96802743693
tp47
tp48
a((F0.3
g1
g23
I150
I20
tp49
(F-179999.81580500735
tp50
tp51
a((F0.3
g1
g6
I150
I40
tp52
(F-179999.81580500735
tp53
tp54
a((F0.3
g10
g2
I100
I40
tp55
(F-79999.96802743696
tp56
tp57
a((F0.3
g36
g6
I150
I80
tp58
(F-179999.81580500735
tp59
tp60
a((F0.5
g1
g6
I150
I40
tp61
(F-179999.96474347165
tp62
tp63
a((F0.5
g36
g6
I100
I80
tp64
(F-79999.89869096511
tp65
tp66
a((F0.1
g1
g23
I150
I20
tp67
(F-179999.81580500735
tp68
tp69
a((F0.5
g36
g6
I50
I20
tp70
(F-19999.988277180604
tp71
tp72
a((F0.1
g36
g23
I100
I40
tp73
(F-79999.89869096511
tp74
tp75
a((F0.5
g10
g6
I150
I20
tp76
(F-179999.9418692879
tp77
tp78
a((F0.3
g10
g2
I100
I40
tp79
(F-79999.96802743696
tp80
tp81
a((F0.1
g10
g23
I150
I40
tp82
(F-179999.9418692879
tp83
tp84
a((F0.1
g1
g6
I150
I40
tp85
(F-179999.9418692879
tp86
tp87
a((F0.3
g1
g23
I50
I80
tp88
(F-19999.988277180604
tp89
tp90
a((F0.5
g36
g2
I150
I20
tp91
(F-179999.8158050074
tp92
tp93
a((F0.3
g36
g6
I100
I80
tp94
(F-79999.89869096511
tp95
tp96
a((F0.3
g36
g23
I50
I20
tp97
(F-19999.96285501144
tp98
tp99
a((F0.3
g10
g6
I100
I20
tp100
(F-79999.96802743693
tp101
tp102
a((F0.3
g1
g6
I100
I20
tp103
(F-79999.98060849064
tp104
tp105
a((F0.1
g36
g6
I100
I40
tp106
(F-79999.89869096511
tp107
tp108
a((F0.1
g36
g6
I150
I20
tp109
(F-179999.9418692879
tp110
tp111
a((F0.5
g10
g23
I150
I40
tp112
(F-179999.9418692879
tp113
tp114
a((F0.3
g10
g23
I100
I80
tp115
(F-79999.89869096511
tp116
tp117
a((F0.1
g1
g2
I150
I80
tp118
(F-179999.8158050074
tp119
tp120
a((F0.5
g10
g23
I150
I80
tp121
(F-179999.96474347165
tp122
tp123
a((F0.3
g1
g6
I50
I80
tp124
(F-19999.988277180604
tp125
tp126
a((F0.3
g10
g23
I50
I20
tp127
(F-19999.96285501144
tp128
tp129
a((F0.5
g36
g23
I100
I80
tp130
(F-79999.89869096511
tp131
tp132
a((F0.5
g1
g6
I150
I40
tp133
(F-179999.96474347165
tp134
tp135
a((F0.1
g36
g6
I150
I20
tp136
(F-179999.9418692879
tp137
tp138
a((F0.3
g10
g2
I100
I80
tp139
(F-79999.89869096511
tp140
tp141
a((F0.5
g10
g23
I50
I20
tp142
(F-19999.96285501144
tp143
tp144
a((F0.5
g1
g23
I150
I80
tp145
(F-179999.9418692879
tp146
tp147
a((F0.5
g10
g2
I100
I20
tp148
(F-79999.96802743693
tp149
tp150
a((F0.3
g36
g6
I100
I40
tp151
(F-79999.96802743693
tp152
tp153
a((F0.1
g10
g6
I50
I20
tp154
(F-19999.96285501144
tp155
tp156
a.