(lp0
((F0.3
S'singlePoint'
p1
S'continuousDominanceLoss'
p2
I100
I20
tp3
(F-18554.41920979952
tp4
tp5
a((F0.1
g1
S'dominanceRank'
p6
I150
I40
tp7
(F-42927.057290245306
tp8
tp9
a((F0.1
g1
S'dominanceCount'
p10
I150
I80
tp11
(F-42925.50652596483
tp12
tp13
a((F0.5
S'uniform'
p14
g10
I100
I80
tp15
(F-19015.81411736868
tp16
tp17
a((F0.5
g1
g6
I150
I40
tp18
(F-42880.91637252088
tp19
tp20
a((F0.5
g14
g10
I150
I20
tp21
(F-42926.27506788347
tp22
tp23
a((F0.1
g14
g10
I50
I20
tp24
(F-4796.431832262914
tp25
tp26
a((F0.3
g14
g10
I150
I20
tp27
(F-42925.42176911997
tp28
tp29
a((F0.1
g14
g10
I150
I40
tp30
(F-42937.96796012234
tp31
tp32
a((F0.5
g1
g10
I150
I80
tp33
(F-42956.63561287909
tp34
tp35
a((F0.1
g1
g10
I50
I40
tp36
(F-4796.703342211635
tp37
tp38
a((F0.1
g1
g10
I150
I80
tp39
(F-42925.50652596483
tp40
tp41
a((F0.5
g14
g6
I150
I20
tp42
(F-42917.740620322904
tp43
tp44
a((F0.3
g14
g10
I50
I40
tp45
(F-4796.5746656888705
tp46
tp47
a((F0.3
g14
g10
I150
I20
tp48
(F-42925.42176911997
tp49
tp50
a((F0.3
g14
g10
I150
I20
tp51
(F-42925.42176911997
tp52
tp53
a((F0.1
g14
g6
I150
I20
tp54
(F-42923.92593939812
tp55
tp56
a((F0.1
g1
g10
I150
I40
tp57
(F-43284.67070641953
tp58
tp59
a((F0.3
g14
g10
I150
I80
tp60
(F-42933.66705393942
tp61
tp62
a((F0.3
S'TwoPoint'
p63
g10
I100
I40
tp64
(F-19014.928019598254
tp65
tp66
a((F0.3
g63
g6
I100
I40
tp67
(F-19015.741962974786
tp68
tp69
a((F0.1
g63
g6
I150
I20
tp70
(F-42977.23537306691
tp71
tp72
a((F0.1
g14
g10
I150
I80
tp73
(F-42978.43500314756
tp74
tp75
a((F0.5
g14
g10
I150
I20
tp76
(F-42926.27506788347
tp77
tp78
a((F0.3
g14
g10
I150
I20
tp79
(F-42925.42176911997
tp80
tp81
a((F0.5
g1
g10
I100
I80
tp82
(F-19018.95949441554
tp83
tp84
a((F0.3
g63
g10
I150
I40
tp85
(F-42926.43944269222
tp86
tp87
a((F0.1
g1
g6
I50
I40
tp88
(F-4821.174024318197
tp89
tp90
a((F0.5
g63
g10
I150
I80
tp91
(F-42918.99390698152
tp92
tp93
a((F0.3
g1
g6
I150
I80
tp94
(F-42929.03732085405
tp95
tp96
a((F0.3
g1
g6
I100
I40
tp97
(F-19015.235358816935
tp98
tp99
a((F0.3
g14
g2
I150
I20
tp100
(F-41874.27340472857
tp101
tp102
a((F0.3
g14
g6
I100
I20
tp103
(F-19013.088692814898
tp104
tp105
a((F0.3
g1
g10
I100
I80
tp106
(F-19011.678542033824
tp107
tp108
a((F0.5
g1
g10
I150
I20
tp109
(F-42924.32619404392
tp110
tp111
a((F0.3
g14
g10
I150
I80
tp112
(F-42933.66705393942
tp113
tp114
a((F0.3
g14
g10
I150
I20
tp115
(F-42925.42176911997
tp116
tp117
a((F0.5
g14
g10
I50
I20
tp118
(F-4796.517810075036
tp119
tp120
a((F0.1
g1
g6
I100
I80
tp121
(F-19013.1376177978
tp122
tp123
a((F0.5
g14
g10
I150
I20
tp124
(F-42926.27506788347
tp125
tp126
a((F0.5
g14
g10
I50
I80
tp127
(F-4838.014190564172
tp128
tp129
a((F0.3
g14
g10
I150
I80
tp130
(F-42933.66705393942
tp131
tp132
a((F0.5
g1
g10
I150
I80
tp133
(F-42956.63561287909
tp134
tp135
a((F0.3
g14
g6
I150
I80
tp136
(F-42927.21722988615
tp137
tp138
a((F0.3
g1
g10
I50
I40
tp139
(F-4796.313741673154
tp140
tp141
a((F0.3
g14
g10
I150
I20
tp142
(F-42925.42176911997
tp143
tp144
a((F0.3
g1
g10
I150
I40
tp145
(F-42926.569002802986
tp146
tp147
a((F0.3
g63
g6
I50
I20
tp148
(F-4841.163884137194
tp149
tp150
a((F0.3
g1
g2
I150
I20
tp151
(F-41874.27340421679
tp152
tp153
a((F0.3
g1
g6
I150
I80
tp154
(F-42929.03732085405
tp155
tp156
a.