(lp0
((F0.1
S'TwoPoint'
p1
S'dominanceCount'
p2
I150
I20
tp3
(F-175185.42270611995
tp4
tp5
a((F0.1
S'singlePoint'
p6
g2
I50
I80
tp7
(F-19694.050843112956
tp8
tp9
a((F0.3
g6
g2
I150
I40
tp10
(F-175213.44396707194
tp11
tp12
a((F0.1
g6
g2
I150
I20
tp13
(F-175271.41356183213
tp14
tp15
a((F0.5
g6
g2
I150
I20
tp16
(F-175227.08059198267
tp17
tp18
a((F0.3
g6
S'continuousDominanceLoss'
p19
I150
I20
tp20
(F-171084.88656150203
tp21
tp22
a((F0.5
g6
g2
I100
I40
tp23
(F-77975.51427907705
tp24
tp25
a((F0.3
g6
g2
I100
I40
tp26
(F-77977.69614825358
tp27
tp28
a((F0.1
g6
g2
I50
I80
tp29
(F-19694.050843112956
tp30
tp31
a((F0.1
g6
S'dominanceRank'
p32
I100
I80
tp33
(F-81682.05055268465
tp34
tp35
a((F0.1
g6
g19
I150
I40
tp36
(F-171109.07332908033
tp37
tp38
a((F0.5
g1
g2
I150
I20
tp39
(F-175211.36402060997
tp40
tp41
a((F0.5
g6
g2
I150
I20
tp42
(F-175227.08059198267
tp43
tp44
a((F0.1
S'uniform'
p45
g2
I100
I20
tp46
(F-78283.3202504347
tp47
tp48
a((F0.1
g45
g32
I100
I40
tp49
(F-77990.96296694897
tp50
tp51
a((F0.5
g1
g32
I150
I20
tp52
(F-175234.40943152012
tp53
tp54
a((F0.1
g6
g32
I100
I40
tp55
(F-77953.89081461304
tp56
tp57
a((F0.1
g6
g2
I150
I40
tp58
(F-175397.7680394434
tp59
tp60
a((F0.1
g45
g2
I150
I20
tp61
(F-175267.51922871926
tp62
tp63
a((F0.3
g6
g32
I50
I20
tp64
(F-19608.38373722136
tp65
tp66
a((F0.1
g45
g2
I100
I40
tp67
(F-78059.0759733914
tp68
tp69
a((F0.1
g45
g32
I150
I40
tp70
(F-175260.91625737638
tp71
tp72
a((F0.3
g6
g2
I150
I80
tp73
(F-175192.59672225855
tp74
tp75
a((F0.1
g6
g2
I150
I40
tp76
(F-175397.7680394434
tp77
tp78
a((F0.5
g6
g32
I150
I80
tp79
(F-175211.868255283
tp80
tp81
a((F0.5
g1
g2
I150
I20
tp82
(F-175211.36402060997
tp83
tp84
a((F0.3
g6
g2
I100
I40
tp85
(F-77977.69614825358
tp86
tp87
a((F0.1
g6
g2
I150
I80
tp88
(F-175275.66911662635
tp89
tp90
a((F0.1
g6
g19
I150
I40
tp91
(F-171109.07332908033
tp92
tp93
a((F0.5
g6
g32
I150
I40
tp94
(F-175218.2521135413
tp95
tp96
a((F0.1
g6
g2
I150
I20
tp97
(F-175271.41356183213
tp98
tp99
a((F0.3
g45
g2
I150
I20
tp100
(F-175239.31172730308
tp101
tp102
a((F0.1
g6
g2
I150
I40
tp103
(F-175397.7680394434
tp104
tp105
a((F0.5
g1
g32
I150
I20
tp106
(F-175234.40943152012
tp107
tp108
a((F0.1
g1
g2
I150
I40
tp109
(F-175252.0893859652
tp110
tp111
a((F0.3
g45
g32
I150
I40
tp112
(F-175194.17906382043
tp113
tp114
a((F0.3
g45
g32
I150
I20
tp115
(F-175221.8369209187
tp116
tp117
a((F0.1
g45
g2
I100
I20
tp118
(F-78283.3202504347
tp119
tp120
a((F0.5
g45
g2
I150
I40
tp121
(F-175212.94077745805
tp122
tp123
a((F0.5
g6
g32
I100
I40
tp124
(F-77968.7898533923
tp125
tp126
a((F0.1
g45
g19
I150
I20
tp127
(F-171079.79664704564
tp128
tp129
a((F0.1
g1
g2
I100
I40
tp130
(F-78049.70016338698
tp131
tp132
a((F0.1
g6
g32
I100
I20
tp133
(F-78003.47588172287
tp134
tp135
a((F0.3
g6
g2
I150
I20
tp136
(F-175233.17806210436
tp137
tp138
a((F0.3
g6
g19
I150
I20
tp139
(F-171084.88656150203
tp140
tp141
a((F0.1
g6
g2
I150
I20
tp142
(F-175271.41356183213
tp143
tp144
a((F0.3
g45
g19
I150
I20
tp145
(F-171074.06845152858
tp146
tp147
a((F0.1
g6
g2
I100
I20
tp148
(F-77995.163963098
tp149
tp150
a((F0.1
g45
g2
I150
I20
tp151
(F-175267.51922871926
tp152
tp153
a((F0.5
g45
g32
I150
I80
tp154
(F-175234.01648974096
tp155
tp156
a.