(lp0
((F0.1
S'TwoPoint'
p1
S'continuousDominanceLoss'
p2
I100
I40
tp3
(F-19965.578569048215
tp4
tp5
a((F0.3
g1
g2
I50
I20
tp6
(F-4993.5973553683
tp7
tp8
a((F0.3
S'singlePoint'
p9
S'dominanceRank'
p10
I100
I40
tp11
(F-19965.578569048215
tp12
tp13
a((F0.1
g9
g10
I150
I20
tp14
(F-44854.35250531761
tp15
tp16
a((F0.3
S'uniform'
p17
g10
I50
I20
tp18
(F-4993.59735536816
tp19
tp20
a((F0.1
g9
g2
I100
I80
tp21
(F-19965.578569048215
tp22
tp23
a((F0.1
g9
g10
I100
I40
tp24
(F-19965.578569048215
tp25
tp26
a((F0.1
g17
g10
I100
I40
tp27
(F-19965.578569048215
tp28
tp29
a((F0.1
g1
g2
I50
I20
tp30
(F-4993.597355368164
tp31
tp32
a((F0.1
g9
S'dominanceCount'
p33
I100
I20
tp34
(F-19965.578569048248
tp35
tp36
a((F0.5
g9
g10
I100
I40
tp37
(F-19965.578569049016
tp38
tp39
a((F0.1
g9
g33
I150
I20
tp40
(F-44854.35250531768
tp41
tp42
a((F0.3
g1
g33
I150
I20
tp43
(F-44854.3525053209
tp44
tp45
a((F0.5
g17
g2
I100
I80
tp46
(F-19965.578569048215
tp47
tp48
a((F0.5
g9
g33
I150
I80
tp49
(F-44854.3525053176
tp50
tp51
a((F0.5
g1
g33
I150
I40
tp52
(F-44854.35250531798
tp53
tp54
a((F0.5
g9
g33
I150
I40
tp55
(F-44854.35250531802
tp56
tp57
a((F0.5
g17
g2
I50
I80
tp58
(F-4993.597355368157
tp59
tp60
a((F0.1
g9
g2
I50
I20
tp61
(F-4993.597355368163
tp62
tp63
a((F0.5
g9
g10
I100
I40
tp64
(F-19965.578569049016
tp65
tp66
a((F0.1
g17
g10
I150
I40
tp67
(F-44854.3525053176
tp68
tp69
a((F0.3
g9
g33
I50
I20
tp70
(F-4993.597355368472
tp71
tp72
a((F0.1
g1
g10
I50
I40
tp73
(F-4993.597355368157
tp74
tp75
a((F0.3
g9
g33
I50
I40
tp76
(F-4993.597355368157
tp77
tp78
a((F0.1
g1
g33
I100
I80
tp79
(F-19965.578569048215
tp80
tp81
a((F0.3
g17
g2
I50
I40
tp82
(F-4993.597355368157
tp83
tp84
a((F0.1
g9
g2
I100
I40
tp85
(F-19965.578569048215
tp86
tp87
a((F0.1
g17
g33
I50
I80
tp88
(F-4993.597355368157
tp89
tp90
a((F0.1
g17
g33
I150
I80
tp91
(F-44854.3525053176
tp92
tp93
a((F0.3
g17
g33
I100
I40
tp94
(F-19965.578569048215
tp95
tp96
a((F0.5
g9
g2
I100
I40
tp97
(F-19961.85272071192
tp98
tp99
a((F0.1
g17
g10
I150
I80
tp100
(F-44838.98601148653
tp101
tp102
a((F0.1
g1
g33
I100
I80
tp103
(F-19965.578569048215
tp104
tp105
a((F0.5
g9
g10
I50
I40
tp106
(F-4993.597355368235
tp107
tp108
a((F0.5
g1
g10
I150
I20
tp109
(F-44854.352505556984
tp110
tp111
a((F0.5
g17
g33
I50
I40
tp112
(F-4993.597355368159
tp113
tp114
a((F0.5
g9
g10
I50
I40
tp115
(F-4993.597355368235
tp116
tp117
a((F0.1
g9
g2
I150
I80
tp118
(F-44838.98601148653
tp119
tp120
a((F0.3
g1
g33
I150
I40
tp121
(F-44838.98601148653
tp122
tp123
a((F0.1
g17
g2
I100
I20
tp124
(F-19965.578569048215
tp125
tp126
a((F0.5
g9
g2
I100
I20
tp127
(F-19965.5785694539
tp128
tp129
a((F0.3
g9
g2
I150
I80
tp130
(F-44854.3525053176
tp131
tp132
a((F0.5
g1
g33
I100
I80
tp133
(F-19965.578569048215
tp134
tp135
a((F0.3
g17
g33
I150
I80
tp136
(F-44854.3525053176
tp137
tp138
a((F0.5
g9
g33
I150
I20
tp139
(F-44854.35250632273
tp140
tp141
a((F0.1
g9
g33
I150
I80
tp142
(F-44838.98601148653
tp143
tp144
a((F0.3
g1
g33
I100
I20
tp145
(F-19965.57856904874
tp146
tp147
a((F0.1
g17
g10
I150
I20
tp148
(F-44854.3525053176
tp149
tp150
a((F0.5
g17
g33
I150
I80
tp151
(F-44854.3525053176
tp152
tp153
a((F0.1
g9
g10
I150
I20
tp154
(F-44854.35250531761
tp155
tp156
a.