(lp0
((F0.1
S'TwoPoint'
p1
S'continuousDominanceLoss'
p2
I150
I80
tp3
(F-127758.510597899
tp4
tp5
a((F0.1
g1
S'dominanceRank'
p6
I100
I40
tp7
(F-58657.62435542094
tp8
tp9
a((F0.3
S'singlePoint'
p10
g2
I50
I40
tp11
(F-14268.178601742795
tp12
tp13
a((F0.5
g1
S'dominanceCount'
p14
I100
I40
tp15
(F-58647.95267579654
tp16
tp17
a((F0.1
g10
g14
I150
I40
tp18
(F-131538.7930279958
tp19
tp20
a((F0.1
S'uniform'
p21
g6
I100
I80
tp22
(F-58621.406032708976
tp23
tp24
a((F0.5
g21
g6
I150
I80
tp25
(F-131524.70154374247
tp26
tp27
a((F0.5
g1
g2
I100
I20
tp28
(F-56951.62004269855
tp29
tp30
a((F0.3
g21
g6
I100
I40
tp31
(F-58640.15853315853
tp32
tp33
a((F0.3
g10
g14
I100
I80
tp34
(F-58625.301143657154
tp35
tp36
a((F0.3
g10
g6
I150
I80
tp37
(F-131535.29444340518
tp38
tp39
a((F0.1
g1
g2
I50
I80
tp40
(F-14268.178601742795
tp41
tp42
a((F0.3
g1
g6
I100
I20
tp43
(F-58644.71308977237
tp44
tp45
a((F0.1
g21
g6
I150
I80
tp46
(F-131547.00511104576
tp47
tp48
a((F0.5
g10
g2
I150
I40
tp49
(F-127757.18599373654
tp50
tp51
a((F0.5
g21
g14
I100
I40
tp52
(F-58632.242023336206
tp53
tp54
a((F0.1
g21
g14
I100
I20
tp55
(F-58658.59202774887
tp56
tp57
a((F0.3
g1
g6
I50
I40
tp58
(F-14694.092331146256
tp59
tp60
a((F0.3
g1
g6
I150
I20
tp61
(F-131554.43680941028
tp62
tp63
a((F0.1
g1
g14
I50
I20
tp64
(F-14706.825586753292
tp65
tp66
a((F0.3
g21
g14
I100
I80
tp67
(F-58667.134252999975
tp68
tp69
a((F0.5
g10
g14
I50
I20
tp70
(F-14680.858897311198
tp71
tp72
a((F0.1
g21
g2
I150
I40
tp73
(F-127758.39073719263
tp74
tp75
a((F0.3
g10
g14
I100
I40
tp76
(F-58648.151718439374
tp77
tp78
a((F0.3
g1
g2
I100
I80
tp79
(F-56951.62004269855
tp80
tp81
a((F0.3
g1
g14
I150
I80
tp82
(F-131568.79017571203
tp83
tp84
a((F0.1
g10
g2
I100
I40
tp85
(F-56951.56980638437
tp86
tp87
a((F0.3
g10
g6
I150
I20
tp88
(F-131535.60810645224
tp89
tp90
a((F0.5
g1
g6
I100
I40
tp91
(F-58641.165033523284
tp92
tp93
a((F0.3
g10
g6
I100
I40
tp94
(F-58614.86646966062
tp95
tp96
a((F0.3
g10
g2
I100
I40
tp97
(F-56951.62004269855
tp98
tp99
a((F0.1
g1
g2
I150
I40
tp100
(F-127758.22839556239
tp101
tp102
a((F0.1
g10
g2
I100
I80
tp103
(F-56951.62004269855
tp104
tp105
a((F0.5
g21
g6
I150
I20
tp106
(F-131541.03198440996
tp107
tp108
a((F0.5
g1
g6
I50
I80
tp109
(F-14685.480485430955
tp110
tp111
a((F0.1
g21
g6
I150
I40
tp112
(F-131459.7859691164
tp113
tp114
a((F0.1
g1
g14
I150
I80
tp115
(F-131592.76200677073
tp116
tp117
a((F0.5
g21
g2
I100
I40
tp118
(F-56951.62004269855
tp119
tp120
a((F0.1
g1
g14
I150
I80
tp121
(F-131592.76200677073
tp122
tp123
a((F0.5
g21
g2
I50
I20
tp124
(F-14268.178601742795
tp125
tp126
a((F0.1
g1
g6
I50
I20
tp127
(F-14699.077035468028
tp128
tp129
a((F0.1
g21
g2
I100
I80
tp130
(F-56951.59297436638
tp131
tp132
a((F0.5
g21
g14
I150
I40
tp133
(F-131531.19600918953
tp134
tp135
a((F0.1
g10
g6
I50
I80
tp136
(F-14690.72239782264
tp137
tp138
a((F0.1
g1
g6
I150
I40
tp139
(F-131537.5161151385
tp140
tp141
a((F0.5
g10
g14
I100
I40
tp142
(F-58637.72472998337
tp143
tp144
a((F0.3
g10
g6
I100
I80
tp145
(F-58638.87467273764
tp146
tp147
a((F0.1
g10
g2
I100
I80
tp148
(F-56951.62004269855
tp149
tp150
a((F0.3
g1
g2
I100
I20
tp151
(F-56951.62004269855
tp152
tp153
a((F0.1
g21
g6
I150
I80
tp154
(F-131547.00511104576
tp155
tp156
a.