(lp0
((F0.5
S'TwoPoint'
p1
S'dominanceCount'
p2
I150
I80
tp3
(F-45000.0
tp4
tp5
a((F0.1
S'singlePoint'
p6
S'continuousDominanceLoss'
p7
I150
I20
tp8
(F-45000.0
tp9
tp10
a((F0.1
S'uniform'
p11
g2
I150
I40
tp12
(F-45000.0
tp13
tp14
a((F0.3
g11
g2
I150
I20
tp15
(F-45000.0
tp16
tp17
a((F0.3
g1
g7
I150
I80
tp18
(F-45000.0
tp19
tp20
a((F0.5
g11
S'dominanceRank'
p21
I100
I80
tp22
(F-20000.0
tp23
tp24
a((F0.5
g1
g21
I50
I80
tp25
(F-5000.0
tp26
tp27
a((F0.5
g11
g2
I150
I80
tp28
(F-45000.0
tp29
tp30
a((F0.3
g6
g21
I150
I20
tp31
(F-45000.0
tp32
tp33
a((F0.1
g11
g21
I150
I20
tp34
(F-45000.0
tp35
tp36
a((F0.5
g11
g2
I100
I40
tp37
(F-20000.0
tp38
tp39
a((F0.1
g6
g21
I150
I20
tp40
(F-45000.0
tp41
tp42
a((F0.3
g11
g7
I100
I20
tp43
(F-20000.0
tp44
tp45
a((F0.3
g1
g7
I50
I40
tp46
(F-5000.0
tp47
tp48
a((F0.3
g1
g2
I150
I40
tp49
(F-45000.0
tp50
tp51
a((F0.5
g1
g2
I150
I40
tp52
(F-45000.0
tp53
tp54
a((F0.3
g11
g21
I100
I20
tp55
(F-20000.0
tp56
tp57
a((F0.1
g11
g21
I50
I20
tp58
(F-5000.0
tp59
tp60
a((F0.3
g1
g21
I150
I80
tp61
(F-45000.0
tp62
tp63
a((F0.5
g6
g21
I100
I20
tp64
(F-20000.0
tp65
tp66
a((F0.3
g11
g21
I150
I40
tp67
(F-45000.0
tp68
tp69
a((F0.1
g1
g21
I50
I40
tp70
(F-5000.0
tp71
tp72
a((F0.1
g1
g2
I100
I80
tp73
(F-20000.0
tp74
tp75
a((F0.3
g11
g21
I100
I20
tp76
(F-20000.0
tp77
tp78
a((F0.3
g1
g21
I150
I20
tp79
(F-45000.0
tp80
tp81
a((F0.1
g6
g7
I150
I80
tp82
(F-45000.0
tp83
tp84
a((F0.5
g6
g2
I50
I80
tp85
(F-5000.0
tp86
tp87
a((F0.3
g11
g7
I150
I40
tp88
(F-45000.0
tp89
tp90
a((F0.1
g11
g21
I50
I80
tp91
(F-5000.0
tp92
tp93
a((F0.1
g1
g2
I50
I40
tp94
(F-5000.0
tp95
tp96
a((F0.5
g6
g21
I100
I40
tp97
(F-20000.0
tp98
tp99
a((F0.3
g6
g2
I50
I20
tp100
(F-5000.0
tp101
tp102
a((F0.3
g1
g2
I150
I20
tp103
(F-45000.0
tp104
tp105
a((F0.5
g11
g7
I100
I80
tp106
(F-20000.0
tp107
tp108
a((F0.3
g11
g21
I100
I80
tp109
(F-20000.0
tp110
tp111
a((F0.3
g6
g2
I100
I20
tp112
(F-20000.0
tp113
tp114
a((F0.1
g11
g21
I150
I80
tp115
(F-45000.0
tp116
tp117
a((F0.3
g1
g7
I100
I80
tp118
(F-20000.0
tp119
tp120
a((F0.1
g6
g21
I150
I40
tp121
(F-45000.0
tp122
tp123
a((F0.5
g11
g21
I50
I40
tp124
(F-5000.0
tp125
tp126
a((F0.5
g6
g2
I150
I80
tp127
(F-45000.0
tp128
tp129
a((F0.5
g1
g21
I150
I40
tp130
(F-45000.0
tp131
tp132
a((F0.1
g11
g21
I150
I20
tp133
(F-45000.0
tp134
tp135
a((F0.5
g6
g2
I150
I40
tp136
(F-45000.0
tp137
tp138
a((F0.1
g11
g7
I150
I80
tp139
(F-45000.0
tp140
tp141
a((F0.3
g11
g21
I100
I40
tp142
(F-20000.0
tp143
tp144
a((F0.1
g1
g21
I150
I40
tp145
(F-45000.0
tp146
tp147
a((F0.3
g6
g21
I150
I20
tp148
(F-45000.0
tp149
tp150
a((F0.1
g6
g2
I100
I40
tp151
(F-20000.0
tp152
tp153
a((F0.1
g1
g7
I150
I20
tp154
(F-45000.0
tp155
tp156
a.