(lp0
((F0.1
S'singlePoint'
p1
S'dominanceCount'
p2
I100
I40
tp3
(F-39999.94334996402
tp4
tp5
a((F0.3
g1
S'continuousDominanceLoss'
p6
I50
I40
tp7
(F-9999.993484176568
tp8
tp9
a((F0.3
S'TwoPoint'
p10
g2
I100
I80
tp11
(F-39999.94334996402
tp12
tp13
a((F0.1
S'uniform'
p14
g6
I150
I80
tp15
(F-89999.5880455446
tp16
tp17
a((F0.3
g14
g2
I100
I20
tp18
(F-39999.87489878404
tp19
tp20
a((F0.5
g1
S'dominanceRank'
p21
I150
I80
tp22
(F-89999.5880455446
tp23
tp24
a((F0.5
g14
g2
I150
I40
tp25
(F-89999.81345329908
tp26
tp27
a((F0.3
g1
g6
I150
I40
tp28
(F-89999.58804554462
tp29
tp30
a((F0.1
g10
g2
I50
I80
tp31
(F-9999.985610473006
tp32
tp33
a((F0.3
g1
g21
I100
I20
tp34
(F-39999.87489878404
tp35
tp36
a((F0.1
g1
g6
I150
I20
tp37
(F-89999.81345329908
tp38
tp39
a((F0.5
g14
g2
I150
I80
tp40
(F-89999.5880455446
tp41
tp42
a((F0.5
g1
g21
I100
I80
tp43
(F-39999.94334996402
tp44
tp45
a((F0.5
g10
g2
I50
I20
tp46
(F-9999.993484176568
tp47
tp48
a((F0.1
g14
g6
I100
I20
tp49
(F-39999.87489878404
tp50
tp51
a((F0.5
g10
g2
I100
I40
tp52
(F-39999.94334996402
tp53
tp54
a((F0.1
g14
g2
I100
I40
tp55
(F-39999.94334996402
tp56
tp57
a((F0.5
g1
g6
I150
I80
tp58
(F-89998.4492386179
tp59
tp60
a((F0.3
g10
g6
I50
I40
tp61
(F-9999.993484176568
tp62
tp63
a((F0.5
g14
g21
I100
I20
tp64
(F-39999.5290705627
tp65
tp66
a((F0.3
g10
g21
I150
I80
tp67
(F-89999.42934752912
tp68
tp69
a((F0.3
g1
g21
I100
I80
tp70
(F-39999.87489878404
tp71
tp72
a((F0.3
g14
g2
I100
I80
tp73
(F-39999.87489878404
tp74
tp75
a((F0.5
g14
g21
I50
I80
tp76
(F-9999.980066664099
tp77
tp78
a((F0.1
g14
g2
I50
I40
tp79
(F-9999.993484176568
tp80
tp81
a((F0.1
g1
g21
I150
I20
tp82
(F-89999.81345329908
tp83
tp84
a((F0.3
g1
g21
I150
I40
tp85
(F-89999.5880455446
tp86
tp87
a((F0.3
g1
g21
I50
I80
tp88
(F-9999.993484176568
tp89
tp90
a((F0.1
g14
g21
I100
I20
tp91
(F-39999.94334996402
tp92
tp93
a((F0.5
g1
g21
I50
I20
tp94
(F-9999.985610473006
tp95
tp96
a((F0.3
g10
g2
I50
I20
tp97
(F-9999.993484176568
tp98
tp99
a((F0.3
g1
g6
I100
I40
tp100
(F-39999.05378358402
tp101
tp102
a((F0.1
g14
g21
I50
I80
tp103
(F-9999.993484176568
tp104
tp105
a((F0.1
g1
g6
I50
I80
tp106
(F-9999.993484176568
tp107
tp108
a((F0.5
g14
g2
I100
I40
tp109
(F-39999.94334996402
tp110
tp111
a((F0.5
g1
g21
I150
I40
tp112
(F-89999.81345329908
tp113
tp114
a((F0.5
g10
g21
I150
I20
tp115
(F-89972.07054525799
tp116
tp117
a((F0.5
g1
g6
I50
I80
tp118
(F-9999.993484176568
tp119
tp120
a((F0.5
g1
g21
I150
I20
tp121
(F-89999.81345329908
tp122
tp123
a((F0.5
g1
g21
I50
I40
tp124
(F-9999.985610473006
tp125
tp126
a((F0.3
g14
g21
I150
I20
tp127
(F-89999.81345329908
tp128
tp129
a((F0.5
g1
g2
I150
I40
tp130
(F-89999.81345329908
tp131
tp132
a((F0.1
g14
g6
I100
I80
tp133
(F-39999.94334996402
tp134
tp135
a((F0.5
g1
g21
I50
I80
tp136
(F-9999.993484176568
tp137
tp138
a((F0.1
g14
g6
I50
I80
tp139
(F-9999.985610473006
tp140
tp141
a((F0.3
g14
g21
I100
I40
tp142
(F-39999.5290705627
tp143
tp144
a((F0.5
g14
g2
I50
I80
tp145
(F-9999.993484176568
tp146
tp147
a((F0.3
g10
g21
I100
I40
tp148
(F-39999.87489878404
tp149
tp150
a((F0.3
g10
g6
I100
I20
tp151
(F-39999.05378358402
tp152
tp153
a((F0.5
g14
g2
I50
I20
tp154
(F-9999.993484176568
tp155
tp156
a.