(lp0
((F0.3
S'singlePoint'
p1
S'dominanceRank'
p2
I150
I20
tp3
(F-134010.10294336284
tp4
tp5
a((F0.5
S'TwoPoint'
p6
S'continuousDominanceLoss'
p7
I150
I40
tp8
(F-134010.10294041465
tp9
tp10
a((F0.1
g1
g2
I150
I20
tp11
(F-134010.1029738333
tp12
tp13
a((F0.3
g6
S'dominanceCount'
p14
I150
I20
tp15
(F-134010.10381297074
tp16
tp17
a((F0.5
g6
g7
I150
I20
tp18
(F-134010.10297686997
tp19
tp20
a((F0.3
g6
g14
I150
I20
tp21
(F-134010.10381297074
tp22
tp23
a((F0.5
g1
g7
I150
I20
tp24
(F-134010.1037866394
tp25
tp26
a((F0.5
g1
g14
I150
I40
tp27
(F-134010.10292584146
tp28
tp29
a((F0.5
g6
g14
I150
I20
tp30
(F-134010.1064077722
tp31
tp32
a((F0.5
g1
g7
I50
I20
tp33
(F-14874.608966455455
tp34
tp35
a((F0.1
g6
g14
I150
I20
tp36
(F-134010.10293320054
tp37
tp38
a((F0.3
g1
g14
I150
I20
tp39
(F-134010.1029565358
tp40
tp41
a((F0.5
g6
g14
I150
I20
tp42
(F-134010.1064077722
tp43
tp44
a((F0.5
g1
g14
I150
I20
tp45
(F-134010.10928827518
tp46
tp47
a((F0.5
g6
g14
I150
I20
tp48
(F-134010.1064077722
tp49
tp50
a((F0.5
g1
g14
I150
I20
tp51
(F-134010.10928827518
tp52
tp53
a((F0.5
g6
g2
I150
I20
tp54
(F-134010.1044121889
tp55
tp56
a((F0.3
g6
g14
I150
I20
tp57
(F-134010.10381297074
tp58
tp59
a((F0.3
g1
g2
I150
I20
tp60
(F-134010.10294336284
tp61
tp62
a((F0.5
g1
g2
I100
I20
tp63
(F-59522.79560408836
tp64
tp65
a((F0.5
g1
g7
I150
I20
tp66
(F-134010.1037866394
tp67
tp68
a((F0.5
g6
g2
I150
I20
tp69
(F-134010.1044121889
tp70
tp71
a((F0.1
g1
g2
I150
I20
tp72
(F-134010.1029738333
tp73
tp74
a((F0.5
g6
g2
I150
I20
tp75
(F-134010.1044121889
tp76
tp77
a((F0.3
g1
g7
I150
I20
tp78
(F-134010.10318497306
tp79
tp80
a((F0.3
g6
g2
I150
I20
tp81
(F-134010.10292117525
tp82
tp83
a((F0.5
g1
g2
I150
I20
tp84
(F-134010.10419572663
tp85
tp86
a((F0.5
g1
g2
I150
I20
tp87
(F-134010.10419572663
tp88
tp89
a((F0.5
g1
g2
I100
I20
tp90
(F-59522.79560408836
tp91
tp92
a((F0.1
g6
g7
I150
I40
tp93
(F-134010.10292224676
tp94
tp95
a((F0.5
g1
g14
I150
I20
tp96
(F-134010.10928827518
tp97
tp98
a((F0.1
g1
g2
I150
I20
tp99
(F-134010.1029738333
tp100
tp101
a((F0.3
g1
g2
I150
I20
tp102
(F-134010.10294336284
tp103
tp104
a((F0.3
g6
g14
I150
I20
tp105
(F-134010.10381297074
tp106
tp107
a((F0.5
g1
g2
I150
I20
tp108
(F-134010.10419572663
tp109
tp110
a((F0.1
g1
g7
I150
I20
tp111
(F-134010.10294116437
tp112
tp113
a((F0.3
g6
g14
I150
I20
tp114
(F-134010.10381297074
tp115
tp116
a((F0.1
g6
g14
I150
I20
tp117
(F-134010.10293320054
tp118
tp119
a((F0.5
g1
g14
I150
I20
tp120
(F-134010.10928827518
tp121
tp122
a((F0.5
g6
g14
I150
I20
tp123
(F-134010.1064077722
tp124
tp125
a((F0.5
g6
g14
I150
I20
tp126
(F-134010.1064077722
tp127
tp128
a((F0.5
g6
g14
I150
I20
tp129
(F-134010.1064077722
tp130
tp131
a((F0.3
g6
g14
I150
I20
tp132
(F-134010.10381297074
tp133
tp134
a((F0.3
g1
g7
I150
I20
tp135
(F-134010.10318497306
tp136
tp137
a((F0.3
g6
g14
I150
I20
tp138
(F-134010.10381297074
tp139
tp140
a((F0.3
g1
g14
I150
I80
tp141
(F-134010.10291597192
tp142
tp143
a((F0.5
g6
g14
I150
I20
tp144
(F-134010.1064077722
tp145
tp146
a((F0.1
g1
g2
I150
I20
tp147
(F-134010.1029738333
tp148
tp149
a((F0.1
g1
g7
I150
I20
tp150
(F-134010.10294116437
tp151
tp152
a((F0.5
g1
g14
I150
I20
tp153
(F-134010.10928827518
tp154
tp155
a.