(lp0
((F0.1
S'TwoPoint'
p1
S'continuousDominanceLoss'
p2
I100
I40
tp3
(F-35858.88454236445
tp4
tp5
a((F0.5
S'singlePoint'
p6
S'dominanceRank'
p7
I50
I80
tp8
(F-9111.091139391438
tp9
tp10
a((F0.1
g1
S'dominanceCount'
p11
I150
I80
tp12
(F-80878.11296676517
tp13
tp14
a((F0.5
g6
g11
I100
I80
tp15
(F-36317.412119564884
tp16
tp17
a((F0.5
g1
g2
I150
I20
tp18
(F-81466.15083534743
tp19
tp20
a((F0.3
g6
g2
I100
I80
tp21
(F-35828.92731595529
tp22
tp23
a((F0.5
S'uniform'
p24
g11
I150
I80
tp25
(F-81523.3947183483
tp26
tp27
a((F0.5
g24
g11
I50
I20
tp28
(F-9147.433541386803
tp29
tp30
a((F0.3
g6
g11
I50
I80
tp31
(F-9046.553247900001
tp32
tp33
a((F0.1
g1
g2
I50
I80
tp34
(F-9033.44256527172
tp35
tp36
a((F0.5
g1
g2
I50
I40
tp37
(F-9119.80148679005
tp38
tp39
a((F0.5
g24
g2
I150
I40
tp40
(F-81177.32027934256
tp41
tp42
a((F0.3
g1
g7
I100
I80
tp43
(F-35893.282419065144
tp44
tp45
a((F0.3
g1
g2
I50
I80
tp46
(F-9032.67193987238
tp47
tp48
a((F0.1
g24
g2
I150
I20
tp49
(F-80679.91225514555
tp50
tp51
a((F0.5
g1
g2
I150
I80
tp52
(F-81169.31432584819
tp53
tp54
a((F0.5
g1
g2
I50
I40
tp55
(F-9119.80148679005
tp56
tp57
a((F0.5
g1
g2
I150
I40
tp58
(F-81176.19104041388
tp59
tp60
a((F0.5
g1
g7
I50
I20
tp61
(F-9152.830659820751
tp62
tp63
a((F0.1
g1
g11
I50
I20
tp64
(F-9114.727851042036
tp65
tp66
a((F0.5
g6
g7
I150
I20
tp67
(F-81736.0329508604
tp68
tp69
a((F0.1
g24
g11
I50
I20
tp70
(F-9053.364241770347
tp71
tp72
a((F0.5
g24
g7
I50
I20
tp73
(F-9138.221640112952
tp74
tp75
a((F0.1
g1
g2
I100
I80
tp76
(F-35809.0257968601
tp77
tp78
a((F0.5
g6
g11
I150
I20
tp79
(F-81713.23725091606
tp80
tp81
a((F0.3
g24
g11
I50
I20
tp82
(F-9091.310795115052
tp83
tp84
a((F0.3
g1
g11
I150
I80
tp85
(F-80610.64867698569
tp86
tp87
a((F0.5
g6
g11
I150
I80
tp88
(F-81302.50461780178
tp89
tp90
a((F0.3
g6
g7
I50
I20
tp91
(F-9104.735516645655
tp92
tp93
a((F0.3
g1
g7
I150
I20
tp94
(F-81175.29327589633
tp95
tp96
a((F0.3
g1
g2
I150
I40
tp97
(F-80787.60098482859
tp98
tp99
a((F0.3
g6
g11
I150
I20
tp100
(F-81231.28573860395
tp101
tp102
a((F0.5
g6
g11
I150
I20
tp103
(F-81713.23725091606
tp104
tp105
a((F0.3
g24
g11
I150
I40
tp106
(F-80555.23973649494
tp107
tp108
a((F0.3
g24
g11
I100
I20
tp109
(F-36151.25239325901
tp110
tp111
a((F0.3
g1
g11
I50
I80
tp112
(F-9056.96411344797
tp113
tp114
a((F0.3
g24
g2
I50
I80
tp115
(F-9032.784344800575
tp116
tp117
a((F0.5
g1
g11
I50
I20
tp118
(F-9160.10807849786
tp119
tp120
a((F0.3
g24
g7
I100
I80
tp121
(F-35840.144029760595
tp122
tp123
a((F0.1
g1
g2
I150
I80
tp124
(F-80412.63224828569
tp125
tp126
a((F0.5
g6
g11
I150
I40
tp127
(F-81577.66832052889
tp128
tp129
a((F0.5
g1
g7
I150
I40
tp130
(F-81568.66210434417
tp131
tp132
a((F0.1
g24
g2
I150
I80
tp133
(F-80365.34135924511
tp134
tp135
a((F0.5
g6
g11
I150
I40
tp136
(F-81577.66832052889
tp137
tp138
a((F0.1
g1
g2
I100
I20
tp139
(F-36049.95581194008
tp140
tp141
a((F0.3
g6
g7
I50
I80
tp142
(F-9043.411816704744
tp143
tp144
a((F0.3
g6
g7
I150
I20
tp145
(F-81325.63829025795
tp146
tp147
a((F0.3
g1
g11
I100
I40
tp148
(F-35941.03971562964
tp149
tp150
a((F0.1
g24
g7
I150
I20
tp151
(F-80665.67751962236
tp152
tp153
a((F0.5
g24
g7
I150
I20
tp154
(F-81559.23219770375
tp155
tp156
a.