(lp0
((F0.3
S'singlePoint'
p1
S'continuousDominanceLoss'
p2
I150
I40
tp3
(F-178623.1772881465
tp4
tp5
a((F0.5
S'uniform'
p6
g2
I150
I20
tp7
(F-178623.1788619369
tp8
tp9
a((F0.3
S'TwoPoint'
p10
g2
I150
I20
tp11
(F-178623.17741550074
tp12
tp13
a((F0.5
g10
S'dominanceCount'
p14
I100
I20
tp15
(F-79380.00505444397
tp16
tp17
a((F0.3
g6
S'dominanceRank'
p18
I150
I20
tp19
(F-178658.7175577326
tp20
tp21
a((F0.3
g10
g2
I100
I80
tp22
(F-79363.59934129125
tp23
tp24
a((F0.1
g10
g14
I50
I20
tp25
(F-19836.566783646012
tp26
tp27
a((F0.5
g10
g2
I50
I20
tp28
(F-19840.77767946696
tp29
tp30
a((F0.5
g1
g2
I150
I40
tp31
(F-178623.17734668613
tp32
tp33
a((F0.5
g10
g18
I150
I40
tp34
(F-178623.17740935404
tp35
tp36
a((F0.1
g10
g2
I100
I20
tp37
(F-79380.00351125597
tp38
tp39
a((F0.5
g10
g2
I50
I40
tp40
(F-19836.56680162354
tp41
tp42
a((F0.1
g1
g14
I50
I20
tp43
(F-19840.77627114685
tp44
tp45
a((F0.3
g6
g14
I50
I40
tp46
(F-19836.56678252088
tp47
tp48
a((F0.3
g1
g2
I100
I20
tp49
(F-79380.00352918555
tp50
tp51
a((F0.3
g1
g14
I150
I20
tp52
(F-178623.17788927894
tp53
tp54
a((F0.3
g10
g18
I100
I80
tp55
(F-79380.00350726348
tp56
tp57
a((F0.3
g10
g14
I150
I40
tp58
(F-178623.17728753173
tp59
tp60
a((F0.3
g6
g14
I50
I40
tp61
(F-19836.56678252088
tp62
tp63
a((F0.1
g10
g18
I100
I80
tp64
(F-79380.00350726348
tp65
tp66
a((F0.3
g10
g18
I100
I20
tp67
(F-79344.94697334908
tp68
tp69
a((F0.3
g1
g18
I100
I80
tp70
(F-79314.04082964078
tp71
tp72
a((F0.3
g10
g2
I50
I20
tp73
(F-19836.566801862147
tp74
tp75
a((F0.1
g10
g2
I100
I40
tp76
(F-79380.00350728992
tp77
tp78
a((F0.1
g10
g14
I150
I40
tp79
(F-178658.71755604912
tp80
tp81
a((F0.5
g1
g18
I150
I80
tp82
(F-178658.71755679202
tp83
tp84
a((F0.1
g1
g2
I100
I40
tp85
(F-79363.59934129097
tp86
tp87
a((F0.3
g1
g18
I50
I20
tp88
(F-19836.56682127903
tp89
tp90
a((F0.5
g10
g2
I100
I40
tp91
(F-79363.59939432112
tp92
tp93
a((F0.5
g1
g14
I100
I80
tp94
(F-79363.5993443575
tp95
tp96
a((F0.3
g6
g14
I100
I20
tp97
(F-79380.00350949613
tp98
tp99
a((F0.3
g6
g2
I150
I40
tp100
(F-178623.177286881
tp101
tp102
a((F0.5
g1
g2
I100
I40
tp103
(F-79363.59946214518
tp104
tp105
a((F0.5
g10
g2
I150
I40
tp106
(F-178658.7176957389
tp107
tp108
a((F0.5
g10
g2
I50
I20
tp109
(F-19840.77767946696
tp110
tp111
a((F0.3
g6
g18
I150
I40
tp112
(F-178658.7175560574
tp113
tp114
a((F0.5
g10
g2
I100
I80
tp115
(F-79363.59934208366
tp116
tp117
a((F0.5
g6
g18
I150
I80
tp118
(F-178623.1772868262
tp119
tp120
a((F0.5
g10
g18
I50
I40
tp121
(F-19836.566786692845
tp122
tp123
a((F0.5
g6
g14
I150
I40
tp124
(F-178582.76277997412
tp125
tp126
a((F0.3
g1
g18
I150
I20
tp127
(F-178623.17748800936
tp128
tp129
a((F0.5
g1
g14
I150
I80
tp130
(F-178623.1772879216
tp131
tp132
a((F0.5
g10
g14
I50
I40
tp133
(F-19840.77628145867
tp134
tp135
a((F0.5
g1
g14
I100
I40
tp136
(F-79363.59939107687
tp137
tp138
a((F0.5
g1
g2
I50
I80
tp139
(F-19836.566782544294
tp140
tp141
a((F0.5
g1
g18
I50
I20
tp142
(F-19840.776636785748
tp143
tp144
a((F0.3
g6
g2
I50
I20
tp145
(F-19836.5667830427
tp146
tp147
a((F0.3
g10
g2
I100
I40
tp148
(F-79380.00350744011
tp149
tp150
a((F0.3
g1
g2
I100
I40
tp151
(F-79363.59934376339
tp152
tp153
a((F0.1
g10
g2
I150
I80
tp154
(F-178623.1772868208
tp155
tp156
a.