(lp0
((F0.3
S'TwoPoint'
p1
S'continuousDominanceLoss'
p2
I150
I40
tp3
(F-42068.970071029835
tp4
tp5
a((F0.3
g1
S'dominanceRank'
p6
I150
I40
tp7
(F-43162.40267867602
tp8
tp9
a((F0.1
S'uniform'
p10
g2
I150
I80
tp11
(F-42069.05244251483
tp12
tp13
a((F0.3
g10
S'dominanceCount'
p14
I100
I40
tp15
(F-19226.050567667797
tp16
tp17
a((F0.1
S'singlePoint'
p18
g2
I50
I40
tp19
(F-4662.912924173356
tp20
tp21
a((F0.1
g18
g14
I100
I40
tp22
(F-19224.780586037556
tp23
tp24
a((F0.1
g10
g14
I100
I20
tp25
(F-19226.12476313847
tp26
tp27
a((F0.5
g10
g6
I100
I80
tp28
(F-19218.387204789775
tp29
tp30
a((F0.1
g1
g14
I50
I80
tp31
(F-4775.131668524067
tp32
tp33
a((F0.3
g18
g6
I150
I80
tp34
(F-43153.84297541249
tp35
tp36
a((F0.1
g1
g14
I100
I80
tp37
(F-19226.138328191413
tp38
tp39
a((F0.1
g10
g6
I100
I20
tp40
(F-19218.856748952334
tp41
tp42
a((F0.5
g1
g2
I50
I40
tp43
(F-4670.573375587386
tp44
tp45
a((F0.5
g1
g6
I100
I40
tp46
(F-19225.923895413292
tp47
tp48
a((F0.5
g1
g6
I50
I40
tp49
(F-4776.668999748166
tp50
tp51
a((F0.3
g10
g6
I150
I40
tp52
(F-43154.18705302846
tp53
tp54
a((F0.1
g1
g14
I100
I20
tp55
(F-19226.13832904166
tp56
tp57
a((F0.3
g1
g2
I50
I40
tp58
(F-4662.912922368361
tp59
tp60
a((F0.1
g1
g14
I100
I20
tp61
(F-19226.13832904166
tp62
tp63
a((F0.1
g18
g14
I150
I20
tp64
(F-43188.46928395622
tp65
tp66
a((F0.1
g18
g14
I100
I20
tp67
(F-19226.140187631237
tp68
tp69
a((F0.3
g10
g6
I150
I20
tp70
(F-43162.7019307262
tp71
tp72
a((F0.5
g1
g6
I100
I80
tp73
(F-19227.145344154233
tp74
tp75
a((F0.1
g18
g6
I100
I40
tp76
(F-19226.140187631237
tp77
tp78
a((F0.3
g10
g14
I150
I80
tp79
(F-43159.342707240576
tp80
tp81
a((F0.3
g10
g6
I50
I20
tp82
(F-4777.0108397601925
tp83
tp84
a((F0.3
g18
g6
I150
I20
tp85
(F-43159.04538481413
tp86
tp87
a((F0.3
g1
g6
I50
I20
tp88
(F-4776.7695236931795
tp89
tp90
a((F0.1
g1
g2
I50
I40
tp91
(F-4662.912922368361
tp92
tp93
a((F0.5
g18
g6
I50
I40
tp94
(F-4776.5923197046095
tp95
tp96
a((F0.3
g10
g2
I50
I80
tp97
(F-4662.912924173356
tp98
tp99
a((F0.1
g18
g6
I150
I20
tp100
(F-43162.833071616464
tp101
tp102
a((F0.1
g10
g14
I50
I40
tp103
(F-4776.070986615178
tp104
tp105
a((F0.3
g1
g2
I150
I20
tp106
(F-42069.05243735707
tp107
tp108
a((F0.5
g1
g6
I150
I20
tp109
(F-43158.17441791211
tp110
tp111
a((F0.1
g10
g14
I150
I40
tp112
(F-43162.82875559057
tp113
tp114
a((F0.5
g18
g14
I150
I20
tp115
(F-43162.19720254067
tp116
tp117
a((F0.3
g10
g14
I150
I20
tp118
(F-43162.82876044703
tp119
tp120
a((F0.1
g10
g6
I150
I40
tp121
(F-43154.3054442951
tp122
tp123
a((F0.5
g10
g6
I150
I80
tp124
(F-43180.90979440753
tp125
tp126
a((F0.3
g1
g14
I150
I40
tp127
(F-43162.80285785107
tp128
tp129
a((F0.5
g1
g14
I100
I80
tp130
(F-19222.82450432222
tp131
tp132
a((F0.3
g18
g2
I150
I20
tp133
(F-42069.05243735707
tp134
tp135
a((F0.3
g18
g6
I100
I80
tp136
(F-19226.134176542826
tp137
tp138
a((F0.3
g18
g14
I50
I40
tp139
(F-4777.024521719821
tp140
tp141
a((F0.1
g18
g6
I50
I40
tp142
(F-4777.0108397601925
tp143
tp144
a((F0.1
g10
g14
I150
I40
tp145
(F-43162.82875559057
tp146
tp147
a((F0.1
g18
g2
I100
I80
tp148
(F-18738.68755203946
tp149
tp150
a((F0.1
g1
g14
I100
I20
tp151
(F-19226.13832904166
tp152
tp153
a((F0.3
g18
g14
I50
I80
tp154
(F-4776.331883275504
tp155
tp156
a.