(lp0
((F0.3
S'TwoPoint'
p1
S'continuousDominanceLoss'
p2
I50
I20
tp3
(F-13878.372023256092
tp4
tp5
a((F0.1
g1
g2
I100
I40
tp6
(F-55462.69857749049
tp7
tp8
a((F0.5
g1
g2
I100
I20
tp9
(F-55777.8727076374
tp10
tp11
a((F0.3
S'singlePoint'
p12
S'dominanceRank'
p13
I150
I80
tp14
(F-125218.86991301567
tp15
tp16
a((F0.1
g12
g13
I100
I20
tp17
(F-55557.55040887181
tp18
tp19
a((F0.5
g12
S'dominanceCount'
p20
I100
I80
tp21
(F-55669.51105761158
tp22
tp23
a((F0.1
g1
g2
I100
I40
tp24
(F-55462.69857749049
tp25
tp26
a((F0.5
g1
g13
I150
I80
tp27
(F-125619.91726153092
tp28
tp29
a((F0.1
S'uniform'
p30
g20
I150
I80
tp31
(F-126150.80927442807
tp32
tp33
a((F0.5
g30
g13
I100
I40
tp34
(F-55739.12563264624
tp35
tp36
a((F0.3
g1
g20
I50
I80
tp37
(F-13856.339530767942
tp38
tp39
a((F0.1
g30
g13
I50
I20
tp40
(F-13961.43125805028
tp41
tp42
a((F0.5
g12
g13
I100
I80
tp43
(F-55669.824487285514
tp44
tp45
a((F0.5
g12
g20
I50
I40
tp46
(F-13928.605953642364
tp47
tp48
a((F0.3
g30
g20
I50
I40
tp49
(F-13846.748544395898
tp50
tp51
a((F0.3
g1
g20
I150
I20
tp52
(F-125480.25037537431
tp53
tp54
a((F0.5
g1
g2
I100
I40
tp55
(F-55626.97139916611
tp56
tp57
a((F0.1
g1
g20
I100
I40
tp58
(F-55658.632502517416
tp59
tp60
a((F0.1
g30
g20
I100
I80
tp61
(F-55610.93931134499
tp62
tp63
a((F0.1
g1
g13
I150
I20
tp64
(F-125459.60147275317
tp65
tp66
a((F0.1
g12
g2
I50
I20
tp67
(F-13859.079013772744
tp68
tp69
a((F0.5
g12
g2
I50
I20
tp70
(F-13895.687819729885
tp71
tp72
a((F0.5
g12
g13
I100
I20
tp73
(F-55853.76549825902
tp74
tp75
a((F0.3
g30
g13
I150
I20
tp76
(F-125637.52512416749
tp77
tp78
a((F0.5
g1
g13
I100
I80
tp79
(F-55720.70858314814
tp80
tp81
a((F0.3
g1
g13
I100
I80
tp82
(F-55538.71485834255
tp83
tp84
a((F0.3
g30
g2
I100
I80
tp85
(F-55450.90113301738
tp86
tp87
a((F0.3
g12
g20
I100
I80
tp88
(F-55625.88052917681
tp89
tp90
a((F0.1
g12
g2
I50
I40
tp91
(F-13832.485236108427
tp92
tp93
a((F0.1
g12
g13
I150
I40
tp94
(F-125511.13622979072
tp95
tp96
a((F0.1
g30
g20
I150
I80
tp97
(F-126150.80927442807
tp98
tp99
a((F0.3
g12
g2
I100
I80
tp100
(F-55529.445151912456
tp101
tp102
a((F0.3
g30
g20
I150
I40
tp103
(F-125119.75605581922
tp104
tp105
a((F0.3
g12
g20
I50
I40
tp106
(F-13904.065894148098
tp107
tp108
a((F0.1
g12
g13
I150
I40
tp109
(F-125511.13622979072
tp110
tp111
a((F0.3
g30
g2
I50
I20
tp112
(F-13868.108592388398
tp113
tp114
a((F0.5
g30
g20
I50
I80
tp115
(F-13901.3454930386
tp116
tp117
a((F0.1
g30
g20
I50
I80
tp118
(F-13953.444414012547
tp119
tp120
a((F0.1
g1
g2
I150
I80
tp121
(F-125157.2696565738
tp122
tp123
a((F0.3
g12
g13
I50
I20
tp124
(F-13904.341731337756
tp125
tp126
a((F0.3
g1
g20
I100
I20
tp127
(F-55640.57610354028
tp128
tp129
a((F0.5
g12
g20
I100
I20
tp130
(F-55864.209228622305
tp131
tp132
a((F0.5
g12
g20
I100
I40
tp133
(F-55761.22264439758
tp134
tp135
a((F0.1
g1
g2
I50
I20
tp136
(F-13861.449641271649
tp137
tp138
a((F0.3
g1
g20
I150
I80
tp139
(F-125364.0246098025
tp140
tp141
a((F0.5
g30
g2
I100
I20
tp142
(F-55713.155590685266
tp143
tp144
a((F0.3
g30
g13
I150
I20
tp145
(F-125637.52512416749
tp146
tp147
a((F0.1
g12
g13
I100
I40
tp148
(F-55526.93676221972
tp149
tp150
a((F0.1
g12
g20
I100
I40
tp151
(F-55647.05076782596
tp152
tp153
a((F0.5
g30
g20
I50
I20
tp154
(F-13926.138747846775
tp155
tp156
a.