(lp0
((F0.3
S'TwoPoint'
p1
S'dominanceRank'
p2
I150
I40
tp3
(F-44653.790552314575
tp4
tp5
a((F0.1
g1
S'dominanceCount'
p6
I50
I20
tp7
(F-4957.164707427714
tp8
tp9
a((F0.3
g1
g6
I150
I80
tp10
(F-44657.17833070031
tp11
tp12
a((F0.1
g1
S'continuousDominanceLoss'
p13
I100
I20
tp14
(F-19853.261500739107
tp15
tp16
a((F0.3
S'uniform'
p17
g6
I150
I40
tp18
(F-44657.17833070031
tp19
tp20
a((F0.1
S'singlePoint'
p21
g2
I150
I20
tp22
(F-44622.63117364441
tp23
tp24
a((F0.3
g21
g6
I100
I20
tp25
(F-19865.390295538844
tp26
tp27
a((F0.1
g1
g2
I150
I40
tp28
(F-44653.7905523143
tp29
tp30
a((F0.5
g17
g13
I150
I40
tp31
(F-44657.17833071533
tp32
tp33
a((F0.1
g1
g13
I150
I20
tp34
(F-44657.17833070243
tp35
tp36
a((F0.1
g21
g6
I150
I80
tp37
(F-44653.7905523143
tp38
tp39
a((F0.3
g17
g2
I150
I40
tp40
(F-44657.17833070031
tp41
tp42
a((F0.5
g1
g13
I150
I80
tp43
(F-44622.631173640955
tp44
tp45
a((F0.5
g1
g13
I150
I40
tp46
(F-44622.63117394655
tp47
tp48
a((F0.5
g17
g13
I50
I40
tp49
(F-4957.164707439843
tp50
tp51
a((F0.1
g1
g6
I100
I40
tp52
(F-19866.708843909288
tp53
tp54
a((F0.5
g21
g13
I50
I40
tp55
(F-4957.164707443989
tp56
tp57
a((F0.1
g1
g2
I100
I80
tp58
(F-19866.708843909288
tp59
tp60
a((F0.5
g1
g6
I50
I40
tp61
(F-4957.164707431704
tp62
tp63
a((F0.5
g17
g6
I50
I40
tp64
(F-4957.164707428221
tp65
tp66
a((F0.5
g21
g6
I50
I20
tp67
(F-4957.164711948314
tp68
tp69
a((F0.1
g21
g13
I150
I20
tp70
(F-44657.17833070276
tp71
tp72
a((F0.5
g21
g2
I100
I20
tp73
(F-19853.261509522734
tp74
tp75
a((F0.3
g21
g2
I150
I40
tp76
(F-44657.17833070033
tp77
tp78
a((F0.1
g17
g2
I100
I40
tp79
(F-19866.708843909288
tp80
tp81
a((F0.3
g21
g6
I150
I20
tp82
(F-44607.58781306376
tp83
tp84
a((F0.3
g1
g13
I100
I40
tp85
(F-19866.70884390936
tp86
tp87
a((F0.1
g17
g2
I150
I80
tp88
(F-44657.17833070031
tp89
tp90
a((F0.1
g17
g6
I150
I80
tp91
(F-44657.17833070031
tp92
tp93
a((F0.1
g21
g6
I100
I20
tp94
(F-19865.390295386966
tp95
tp96
a((F0.5
g17
g2
I50
I20
tp97
(F-4956.745773353112
tp98
tp99
a((F0.5
g21
g2
I150
I40
tp100
(F-44622.63117382476
tp101
tp102
a((F0.3
g21
g13
I50
I20
tp103
(F-4952.896596220014
tp104
tp105
a((F0.5
g21
g6
I50
I40
tp106
(F-4956.745771605737
tp107
tp108
a((F0.3
g21
g13
I150
I40
tp109
(F-44653.79055231432
tp110
tp111
a((F0.5
g21
g2
I150
I20
tp112
(F-44657.17836662275
tp113
tp114
a((F0.5
g1
g2
I150
I20
tp115
(F-44657.17840038968
tp116
tp117
a((F0.1
g21
g2
I100
I20
tp118
(F-19866.708843914457
tp119
tp120
a((F0.3
g17
g6
I100
I40
tp121
(F-19866.708843909288
tp122
tp123
a((F0.5
g1
g2
I150
I40
tp124
(F-44657.17833089177
tp125
tp126
a((F0.3
g21
g6
I150
I40
tp127
(F-44622.63117364076
tp128
tp129
a((F0.5
g1
g13
I50
I80
tp130
(F-4957.164707427514
tp131
tp132
a((F0.3
g17
g13
I50
I20
tp133
(F-4956.745771604978
tp134
tp135
a((F0.5
g1
g6
I50
I80
tp136
(F-4957.164707427441
tp137
tp138
a((F0.1
g17
g13
I100
I80
tp139
(F-19866.708843909288
tp140
tp141
a((F0.5
g1
g6
I50
I40
tp142
(F-4957.164707431704
tp143
tp144
a((F0.3
g21
g2
I150
I20
tp145
(F-44653.790552467915
tp146
tp147
a((F0.3
g17
g6
I100
I40
tp148
(F-19866.708843909288
tp149
tp150
a((F0.1
g1
g2
I150
I40
tp151
(F-44653.7905523143
tp152
tp153
a((F0.1
g17
g2
I50
I80
tp154
(F-4957.164707427441
tp155
tp156
a.