(lp0
((F0.5
S'singlePoint'
p1
S'continuousDominanceLoss'
p2
I50
I40
tp3
(F-9343.939041692289
tp4
tp5
a((F0.1
S'uniform'
p6
S'dominanceRank'
p7
I150
I40
tp8
(F-86733.66232320968
tp9
tp10
a((F0.1
g1
g7
I150
I80
tp11
(F-86689.91439286784
tp12
tp13
a((F0.1
g1
S'dominanceCount'
p14
I150
I40
tp15
(F-86699.86754978597
tp16
tp17
a((F0.1
S'TwoPoint'
p18
g2
I150
I80
tp19
(F-83790.99799455005
tp20
tp21
a((F0.3
g18
g7
I150
I40
tp22
(F-86726.49743137155
tp23
tp24
a((F0.3
g18
g7
I100
I80
tp25
(F-38535.17183293648
tp26
tp27
a((F0.3
g1
g7
I100
I20
tp28
(F-38532.18856512613
tp29
tp30
a((F0.5
g6
g2
I150
I40
tp31
(F-83786.87415793106
tp32
tp33
a((F0.5
g1
g7
I100
I20
tp34
(F-38535.39388808695
tp35
tp36
a((F0.3
g18
g7
I50
I20
tp37
(F-9694.034780871883
tp38
tp39
a((F0.5
g6
g2
I150
I20
tp40
(F-83789.84855812827
tp41
tp42
a((F0.1
g18
g14
I50
I20
tp43
(F-9701.124851878454
tp44
tp45
a((F0.5
g18
g2
I150
I80
tp46
(F-83790.84250913592
tp47
tp48
a((F0.3
g18
g7
I50
I40
tp49
(F-9675.21803734512
tp50
tp51
a((F0.3
g6
g14
I100
I80
tp52
(F-38523.98403326819
tp53
tp54
a((F0.1
g6
g14
I100
I80
tp55
(F-38874.617248761686
tp56
tp57
a((F0.5
g1
g14
I100
I80
tp58
(F-38532.81787389694
tp59
tp60
a((F0.5
g6
g2
I50
I80
tp61
(F-9344.02021814271
tp62
tp63
a((F0.5
g6
g14
I100
I40
tp64
(F-38518.27219050666
tp65
tp66
a((F0.1
g1
g2
I50
I20
tp67
(F-9343.939041692289
tp68
tp69
a((F0.5
g1
g2
I50
I20
tp70
(F-9343.939041692289
tp71
tp72
a((F0.1
g1
g14
I100
I20
tp73
(F-38535.05225144874
tp74
tp75
a((F0.3
g1
g2
I100
I80
tp76
(F-37221.09735641026
tp77
tp78
a((F0.1
g18
g14
I150
I40
tp79
(F-86841.30336302519
tp80
tp81
a((F0.3
g6
g2
I150
I80
tp82
(F-83790.99799455005
tp83
tp84
a((F0.3
g6
g2
I50
I40
tp85
(F-9343.783785029324
tp86
tp87
a((F0.1
g18
g2
I50
I20
tp88
(F-9344.017286564873
tp89
tp90
a((F0.5
g1
g14
I150
I20
tp91
(F-86734.94066868581
tp92
tp93
a((F0.1
g1
g2
I150
I20
tp94
(F-83790.85682379291
tp95
tp96
a((F0.1
g1
g7
I150
I20
tp97
(F-86693.05948395065
tp98
tp99
a((F0.3
g6
g7
I150
I80
tp100
(F-86741.5270233425
tp101
tp102
a((F0.1
g18
g2
I100
I20
tp103
(F-37224.856203074785
tp104
tp105
a((F0.3
g1
g7
I100
I80
tp106
(F-38535.17183293648
tp107
tp108
a((F0.3
g1
g2
I150
I80
tp109
(F-83790.82042507293
tp110
tp111
a((F0.5
g18
g14
I100
I20
tp112
(F-38526.04605936853
tp113
tp114
a((F0.5
g1
g14
I100
I20
tp115
(F-38535.16885793116
tp116
tp117
a((F0.5
g1
g14
I150
I80
tp118
(F-86711.56842836148
tp119
tp120
a((F0.1
g18
g14
I100
I40
tp121
(F-38531.66458120239
tp122
tp123
a((F0.1
g6
g7
I50
I20
tp124
(F-9675.367070672355
tp125
tp126
a((F0.5
g18
g2
I50
I80
tp127
(F-9343.847431862208
tp128
tp129
a((F0.5
g18
g2
I150
I20
tp130
(F-83784.72207053813
tp131
tp132
a((F0.5
g18
g7
I150
I20
tp133
(F-86725.8384890317
tp134
tp135
a((F0.1
g6
g2
I150
I80
tp136
(F-83788.74558799749
tp137
tp138
a((F0.5
g18
g14
I50
I20
tp139
(F-9675.691575254335
tp140
tp141
a((F0.5
g6
g2
I100
I20
tp142
(F-37224.805520027374
tp143
tp144
a((F0.1
g18
g14
I50
I40
tp145
(F-9674.103638338967
tp146
tp147
a((F0.3
g6
g7
I150
I40
tp148
(F-86743.38229559922
tp149
tp150
a((F0.1
g1
g7
I100
I40
tp151
(F-38517.78752388478
tp152
tp153
a((F0.3
g6
g7
I100
I20
tp154
(F-38534.245285326484
tp155
tp156
a.