(lp0
((F0.1
S'TwoPoint'
p1
S'dominanceRank'
p2
I100
I40
tp3
(F-59992.72717625765
tp4
tp5
a((F0.1
S'singlePoint'
p6
S'continuousDominanceLoss'
p7
I50
I40
tp8
(F-14996.525636430608
tp9
tp10
a((F0.5
g6
S'dominanceCount'
p11
I100
I80
tp12
(F-59992.72717625765
tp13
tp14
a((F0.3
g1
g7
I150
I80
tp15
(F-134989.05051561882
tp16
tp17
a((F0.3
S'uniform'
p18
g2
I150
I80
tp19
(F-134989.05051561882
tp20
tp21
a((F0.3
g6
g7
I100
I80
tp22
(F-59992.72717625765
tp23
tp24
a((F0.5
g18
g11
I150
I80
tp25
(F-134989.05051561882
tp26
tp27
a((F0.3
g1
g2
I100
I80
tp28
(F-59992.72717625765
tp29
tp30
a((F0.1
g6
g2
I150
I20
tp31
(F-134937.76412723574
tp32
tp33
a((F0.1
g1
g7
I150
I80
tp34
(F-134989.05051561882
tp35
tp36
a((F0.5
g18
g7
I150
I20
tp37
(F-134989.05051561882
tp38
tp39
a((F0.1
g1
g7
I150
I40
tp40
(F-134989.05051561884
tp41
tp42
a((F0.5
g18
g11
I100
I40
tp43
(F-59992.72717625765
tp44
tp45
a((F0.1
g1
g2
I100
I40
tp46
(F-59992.72717625765
tp47
tp48
a((F0.1
g1
g11
I100
I20
tp49
(F-59992.72717625765
tp50
tp51
a((F0.5
g6
g7
I150
I80
tp52
(F-134989.05051561882
tp53
tp54
a((F0.3
g1
g7
I150
I20
tp55
(F-134989.05051561882
tp56
tp57
a((F0.1
g18
g11
I100
I80
tp58
(F-59992.72717625765
tp59
tp60
a((F0.3
g1
g7
I100
I80
tp61
(F-59992.72717625766
tp62
tp63
a((F0.1
g18
g2
I50
I20
tp64
(F-14996.525636430608
tp65
tp66
a((F0.1
g6
g7
I50
I80
tp67
(F-14996.525636430608
tp68
tp69
a((F0.1
g1
g7
I150
I40
tp70
(F-134989.05051561884
tp71
tp72
a((F0.5
g6
g2
I100
I20
tp73
(F-59992.72717625765
tp74
tp75
a((F0.1
g18
g2
I150
I40
tp76
(F-134989.05051561882
tp77
tp78
a((F0.3
g6
g2
I150
I40
tp79
(F-134989.05051561882
tp80
tp81
a((F0.1
g18
g7
I150
I20
tp82
(F-134989.05051561882
tp83
tp84
a((F0.5
g6
g7
I150
I20
tp85
(F-134989.05051561882
tp86
tp87
a((F0.3
g18
g2
I100
I20
tp88
(F-59992.72717625765
tp89
tp90
a((F0.5
g6
g7
I100
I40
tp91
(F-59992.72717625765
tp92
tp93
a((F0.3
g6
g7
I100
I40
tp94
(F-59992.72717625765
tp95
tp96
a((F0.3
g6
g2
I100
I40
tp97
(F-59992.72717625765
tp98
tp99
a((F0.5
g6
g7
I100
I80
tp100
(F-59992.72717625766
tp101
tp102
a((F0.1
g18
g11
I150
I80
tp103
(F-134989.05051561882
tp104
tp105
a((F0.3
g6
g11
I150
I20
tp106
(F-134944.270914093
tp107
tp108
a((F0.5
g6
g2
I150
I80
tp109
(F-134989.05051561882
tp110
tp111
a((F0.1
g6
g11
I150
I20
tp112
(F-134937.76412723574
tp113
tp114
a((F0.3
g6
g7
I50
I20
tp115
(F-14996.525636430608
tp116
tp117
a((F0.5
g18
g11
I50
I80
tp118
(F-14996.525636430608
tp119
tp120
a((F0.1
g18
g2
I150
I80
tp121
(F-134989.05051561882
tp122
tp123
a((F0.3
g1
g7
I100
I80
tp124
(F-59992.72717625766
tp125
tp126
a((F0.3
g6
g11
I100
I40
tp127
(F-59992.72717625765
tp128
tp129
a((F0.5
g18
g2
I50
I40
tp130
(F-14996.525636430608
tp131
tp132
a((F0.3
g6
g7
I150
I80
tp133
(F-134989.05051561882
tp134
tp135
a((F0.1
g18
g7
I50
I80
tp136
(F-14996.525636430608
tp137
tp138
a((F0.3
g6
g11
I150
I40
tp139
(F-134989.05051561882
tp140
tp141
a((F0.5
g6
g7
I100
I20
tp142
(F-59992.72717625765
tp143
tp144
a((F0.3
g1
g11
I150
I80
tp145
(F-134989.05051561882
tp146
tp147
a((F0.5
g18
g7
I100
I40
tp148
(F-59992.72717625765
tp149
tp150
a((F0.1
g18
g2
I100
I80
tp151
(F-59992.72717625765
tp152
tp153
a((F0.3
g1
g7
I100
I20
tp154
(F-59992.72717625765
tp155
tp156
a.