(lp0
((F0.5
S'TwoPoint'
p1
S'continuousDominanceLoss'
p2
I100
I20
tp3
(F-77977.45238641018
tp4
tp5
a((F0.3
S'singlePoint'
p6
S'dominanceCount'
p7
I50
I40
tp8
(F-19478.014869563292
tp9
tp10
a((F0.5
g6
g7
I100
I20
tp11
(F-77997.91132299035
tp12
tp13
a((F0.1
g1
S'dominanceRank'
p14
I50
I20
tp15
(F-19484.585167301488
tp16
tp17
a((F0.3
g6
g7
I150
I20
tp18
(F-175457.05045920034
tp19
tp20
a((F0.5
g6
g2
I150
I20
tp21
(F-175611.00699704577
tp22
tp23
a((F0.5
g1
g2
I150
I20
tp24
(F-175574.20869606786
tp25
tp26
a((F0.5
S'uniform'
p27
g7
I150
I80
tp28
(F-175411.00749833992
tp29
tp30
a((F0.1
g6
g2
I150
I20
tp31
(F-175423.45175205864
tp32
tp33
a((F0.1
g27
g2
I150
I80
tp34
(F-175407.5832623387
tp35
tp36
a((F0.1
g6
g14
I50
I20
tp37
(F-19479.840771159656
tp38
tp39
a((F0.5
g6
g2
I150
I20
tp40
(F-175611.00699704577
tp41
tp42
a((F0.5
g6
g14
I150
I20
tp43
(F-175587.945215732
tp44
tp45
a((F0.5
g27
g2
I100
I40
tp46
(F-77931.09160411394
tp47
tp48
a((F0.5
g6
g14
I100
I40
tp49
(F-77933.27074245807
tp50
tp51
a((F0.5
g6
g2
I150
I20
tp52
(F-175611.00699704577
tp53
tp54
a((F0.3
g27
g14
I150
I20
tp55
(F-175460.675906017
tp56
tp57
a((F0.3
g1
g14
I150
I20
tp58
(F-175461.78199644168
tp59
tp60
a((F0.3
g27
g2
I100
I40
tp61
(F-77914.34058174759
tp62
tp63
a((F0.5
g1
g7
I150
I20
tp64
(F-175584.37305737226
tp65
tp66
a((F0.5
g1
g14
I150
I40
tp67
(F-175460.8037600243
tp68
tp69
a((F0.5
g6
g7
I100
I20
tp70
(F-77997.91132299035
tp71
tp72
a((F0.3
g6
g14
I150
I20
tp73
(F-175453.44352919667
tp74
tp75
a((F0.3
g6
g7
I150
I80
tp76
(F-175407.8093577498
tp77
tp78
a((F0.5
g6
g2
I150
I20
tp79
(F-175611.00699704577
tp80
tp81
a((F0.3
g6
g14
I150
I20
tp82
(F-175453.44352919667
tp83
tp84
a((F0.3
g6
g14
I100
I40
tp85
(F-77913.4465927119
tp86
tp87
a((F0.5
g6
g2
I150
I40
tp88
(F-175455.9632308311
tp89
tp90
a((F0.5
g1
g2
I100
I40
tp91
(F-77928.54548851638
tp92
tp93
a((F0.3
g6
g2
I150
I20
tp94
(F-175459.4345996994
tp95
tp96
a((F0.3
g27
g2
I150
I40
tp97
(F-175413.38059341803
tp98
tp99
a((F0.1
g6
g2
I50
I20
tp100
(F-19479.300939900262
tp101
tp102
a((F0.1
g6
g14
I150
I20
tp103
(F-175424.68217381454
tp104
tp105
a((F0.3
g6
g7
I150
I80
tp106
(F-175407.8093577498
tp107
tp108
a((F0.3
g6
g7
I50
I40
tp109
(F-19478.014869563292
tp110
tp111
a((F0.5
g1
g7
I50
I20
tp112
(F-19496.670513321318
tp113
tp114
a((F0.1
g6
g2
I150
I20
tp115
(F-175423.45175205864
tp116
tp117
a((F0.5
g1
g2
I150
I20
tp118
(F-175574.20869606786
tp119
tp120
a((F0.5
g6
g7
I100
I20
tp121
(F-77997.91132299035
tp122
tp123
a((F0.3
g6
g7
I100
I20
tp124
(F-77929.96445949576
tp125
tp126
a((F0.5
g6
g7
I150
I20
tp127
(F-175582.64894944735
tp128
tp129
a((F0.1
g27
g7
I150
I20
tp130
(F-175410.12128989183
tp131
tp132
a((F0.5
g6
g2
I100
I20
tp133
(F-77968.60818160734
tp134
tp135
a((F0.1
g1
g2
I150
I40
tp136
(F-175408.3921084761
tp137
tp138
a((F0.3
g6
g2
I100
I40
tp139
(F-77913.11399934476
tp140
tp141
a((F0.1
g1
g7
I150
I40
tp142
(F-175408.95019975604
tp143
tp144
a((F0.3
g6
g14
I150
I20
tp145
(F-175453.44352919667
tp146
tp147
a((F0.1
g27
g7
I150
I20
tp148
(F-175410.12128989183
tp149
tp150
a((F0.3
g27
g14
I150
I20
tp151
(F-175460.675906017
tp152
tp153
a((F0.1
g1
g2
I150
I20
tp154
(F-175426.73592484728
tp155
tp156
a.