(lp0
((F0.1
S'TwoPoint'
p1
S'continuousDominanceLoss'
p2
I100
I40
tp3
(F-19994.532348300283
tp4
tp5
a((F0.1
S'uniform'
p6
S'dominanceCount'
p7
I150
I40
tp8
(F-44967.83689443792
tp9
tp10
a((F0.3
g1
g2
I150
I80
tp11
(F-44966.14628844784
tp12
tp13
a((F0.5
g6
S'dominanceRank'
p14
I100
I80
tp15
(F-19994.532348300283
tp16
tp17
a((F0.5
g6
g7
I150
I80
tp18
(F-44966.14628844784
tp19
tp20
a((F0.5
g1
g14
I50
I20
tp21
(F-4998.679154557817
tp22
tp23
a((F0.1
g6
g2
I150
I20
tp24
(F-44966.14628844784
tp25
tp26
a((F0.3
g6
g2
I150
I80
tp27
(F-44967.83689443792
tp28
tp29
a((F0.1
g1
g14
I100
I20
tp30
(F-19993.801348449968
tp31
tp32
a((F0.5
S'singlePoint'
p33
g7
I150
I80
tp34
(F-44952.98178948575
tp35
tp36
a((F0.3
g33
g7
I150
I80
tp37
(F-44966.14628844784
tp38
tp39
a((F0.1
g1
g14
I100
I80
tp40
(F-19991.349329420656
tp41
tp42
a((F0.3
g33
g14
I100
I80
tp43
(F-19993.801348449968
tp44
tp45
a((F0.3
g6
g7
I100
I40
tp46
(F-19994.114538758717
tp47
tp48
a((F0.5
g6
g2
I100
I40
tp49
(F-19991.349329420664
tp50
tp51
a((F0.1
g6
g7
I50
I40
tp52
(F-4998.834996790072
tp53
tp54
a((F0.1
g33
g14
I150
I40
tp55
(F-44966.14628844784
tp56
tp57
a((F0.3
g6
g14
I100
I40
tp58
(F-19994.532348300283
tp59
tp60
a((F0.3
g33
g7
I150
I20
tp61
(F-44952.98178948578
tp62
tp63
a((F0.3
g1
g14
I150
I20
tp64
(F-44970.09548455234
tp65
tp66
a((F0.3
g33
g14
I100
I40
tp67
(F-19993.801348449968
tp68
tp69
a((F0.5
g6
g2
I100
I20
tp70
(F-19991.349329425368
tp71
tp72
a((F0.1
g6
g14
I50
I40
tp73
(F-4998.679154557694
tp74
tp75
a((F0.5
g33
g2
I50
I80
tp76
(F-4998.679154557694
tp77
tp78
a((F0.5
g6
g14
I150
I80
tp79
(F-44967.83689443792
tp80
tp81
a((F0.5
g6
g14
I150
I40
tp82
(F-44967.83689443792
tp83
tp84
a((F0.5
g33
g7
I150
I40
tp85
(F-44967.836894437925
tp86
tp87
a((F0.5
g1
g14
I150
I20
tp88
(F-44966.14628845148
tp89
tp90
a((F0.5
g6
g2
I100
I80
tp91
(F-19993.801348449968
tp92
tp93
a((F0.5
g6
g14
I100
I20
tp94
(F-19993.80134845686
tp95
tp96
a((F0.1
g33
g7
I50
I20
tp97
(F-4998.745926263958
tp98
tp99
a((F0.5
g33
g14
I50
I40
tp100
(F-4998.679154557694
tp101
tp102
a((F0.3
g33
g7
I50
I20
tp103
(F-4998.679154557698
tp104
tp105
a((F0.1
g1
g7
I150
I20
tp106
(F-44952.98178948575
tp107
tp108
a((F0.3
g6
g2
I100
I40
tp109
(F-19994.114538758717
tp110
tp111
a((F0.3
g1
g7
I50
I80
tp112
(F-4998.679154557694
tp113
tp114
a((F0.5
g33
g14
I50
I80
tp115
(F-4998.679154557694
tp116
tp117
a((F0.5
g1
g14
I150
I40
tp118
(F-44966.14628844784
tp119
tp120
a((F0.1
g33
g7
I150
I80
tp121
(F-44970.09548455234
tp122
tp123
a((F0.3
g33
g14
I50
I20
tp124
(F-4998.679154557696
tp125
tp126
a((F0.3
g1
g2
I150
I20
tp127
(F-44970.09548455234
tp128
tp129
a((F0.5
g1
g14
I150
I80
tp130
(F-44970.09548455234
tp131
tp132
a((F0.1
g6
g14
I100
I80
tp133
(F-19994.114538758717
tp134
tp135
a((F0.3
g33
g14
I150
I40
tp136
(F-44967.83689443792
tp137
tp138
a((F0.3
g33
g14
I150
I20
tp139
(F-44966.14628844784
tp140
tp141
a((F0.1
g1
g2
I50
I20
tp142
(F-4998.745926263958
tp143
tp144
a((F0.1
g6
g14
I50
I40
tp145
(F-4998.679154557694
tp146
tp147
a((F0.5
g33
g2
I150
I20
tp148
(F-44966.14628844897
tp149
tp150
a((F0.3
g1
g2
I100
I20
tp151
(F-19993.80134844997
tp152
tp153
a((F0.5
g33
g2
I100
I20
tp154
(F-19994.114538762697
tp155
tp156
a.