(lp0
((F0.1
S'TwoPoint'
p1
S'continuousDominanceLoss'
p2
I100
I40
tp3
(F-60000.0
tp4
tp5
a((F0.5
g1
g2
I150
I20
tp6
(F-135000.0
tp7
tp8
a((F0.1
g1
S'dominanceCount'
p9
I100
I20
tp10
(F-60000.0
tp11
tp12
a((F0.3
g1
g9
I100
I80
tp13
(F-60000.0
tp14
tp15
a((F0.3
S'uniform'
p16
g2
I150
I80
tp17
(F-135000.0
tp18
tp19
a((F0.3
g16
g9
I100
I20
tp20
(F-60000.0
tp21
tp22
a((F0.5
S'singlePoint'
p23
g9
I100
I80
tp24
(F-60000.0
tp25
tp26
a((F0.1
g1
g2
I100
I80
tp27
(F-60000.0
tp28
tp29
a((F0.1
g16
g9
I100
I20
tp30
(F-60000.0
tp31
tp32
a((F0.1
g1
g9
I150
I80
tp33
(F-135000.0
tp34
tp35
a((F0.3
g23
g9
I100
I80
tp36
(F-60000.0
tp37
tp38
a((F0.5
g16
g9
I100
I20
tp39
(F-60000.0
tp40
tp41
a((F0.5
g23
g9
I100
I40
tp42
(F-60000.0
tp43
tp44
a((F0.3
g16
g9
I50
I40
tp45
(F-15000.0
tp46
tp47
a((F0.5
g1
S'dominanceRank'
p48
I100
I20
tp49
(F-60000.0
tp50
tp51
a((F0.3
g1
g9
I100
I20
tp52
(F-60000.0
tp53
tp54
a((F0.5
g23
g2
I150
I80
tp55
(F-135000.0
tp56
tp57
a((F0.3
g1
g2
I50
I40
tp58
(F-15000.0
tp59
tp60
a((F0.5
g1
g2
I100
I40
tp61
(F-60000.0
tp62
tp63
a((F0.3
g1
g9
I50
I80
tp64
(F-15000.0
tp65
tp66
a((F0.1
g16
g9
I150
I20
tp67
(F-135000.0
tp68
tp69
a((F0.1
g23
g9
I100
I20
tp70
(F-60000.0
tp71
tp72
a((F0.3
g16
g9
I50
I20
tp73
(F-15000.0
tp74
tp75
a((F0.3
g1
g9
I100
I40
tp76
(F-60000.0
tp77
tp78
a((F0.5
g23
g48
I150
I80
tp79
(F-135000.0
tp80
tp81
a((F0.1
g23
g2
I100
I40
tp82
(F-60000.0
tp83
tp84
a((F0.1
g1
g48
I100
I20
tp85
(F-60000.0
tp86
tp87
a((F0.3
g1
g9
I150
I20
tp88
(F-135000.0
tp89
tp90
a((F0.1
g1
g2
I50
I40
tp91
(F-15000.0
tp92
tp93
a((F0.5
g23
g2
I50
I80
tp94
(F-15000.0
tp95
tp96
a((F0.5
g23
g2
I100
I40
tp97
(F-60000.0
tp98
tp99
a((F0.5
g16
g9
I50
I80
tp100
(F-15000.0
tp101
tp102
a((F0.1
g23
g48
I150
I20
tp103
(F-135000.0
tp104
tp105
a((F0.3
g23
g48
I150
I20
tp106
(F-135000.0
tp107
tp108
a((F0.3
g16
g2
I50
I80
tp109
(F-15000.0
tp110
tp111
a((F0.1
g23
g48
I100
I20
tp112
(F-60000.0
tp113
tp114
a((F0.1
g16
g9
I50
I80
tp115
(F-15000.0
tp116
tp117
a((F0.3
g1
g2
I100
I80
tp118
(F-60000.0
tp119
tp120
a((F0.1
g23
g48
I150
I40
tp121
(F-135000.0
tp122
tp123
a((F0.1
g1
g48
I50
I20
tp124
(F-15000.0
tp125
tp126
a((F0.1
g16
g2
I100
I80
tp127
(F-60000.0
tp128
tp129
a((F0.3
g16
g9
I150
I80
tp130
(F-135000.0
tp131
tp132
a((F0.5
g1
g48
I150
I40
tp133
(F-135000.0
tp134
tp135
a((F0.1
g23
g48
I50
I80
tp136
(F-15000.0
tp137
tp138
a((F0.3
g23
g9
I150
I40
tp139
(F-135000.0
tp140
tp141
a((F0.3
g16
g2
I150
I20
tp142
(F-135000.0
tp143
tp144
a((F0.3
g23
g9
I50
I20
tp145
(F-15000.0
tp146
tp147
a((F0.1
g1
g2
I150
I80
tp148
(F-135000.0
tp149
tp150
a((F0.1
g1
g2
I150
I20
tp151
(F-135000.0
tp152
tp153
a((F0.5
g16
g48
I150
I20
tp154
(F-135000.0
tp155
tp156
a.