(lp0
((F0.3
S'singlePoint'
p1
S'continuousDominanceLoss'
p2
I50
I20
tp3
(F-14989.556773909355
tp4
tp5
a((F0.3
S'TwoPoint'
p6
S'dominanceCount'
p7
I150
I80
tp8
(F-134918.54242678586
tp9
tp10
a((F0.3
g6
g7
I100
I80
tp11
(F-59951.919589815225
tp12
tp13
a((F0.1
g1
g7
I100
I20
tp14
(F-59913.99607388515
tp15
tp16
a((F0.3
S'uniform'
p17
g7
I150
I20
tp18
(F-134918.54242678586
tp19
tp20
a((F0.3
g6
g2
I150
I80
tp21
(F-134918.54242678586
tp22
tp23
a((F0.5
g6
g2
I100
I20
tp24
(F-59951.91958984671
tp25
tp26
a((F0.5
g6
S'dominanceRank'
p27
I150
I20
tp28
(F-134854.24538068025
tp29
tp30
a((F0.5
g17
g2
I50
I20
tp31
(F-14992.707423131831
tp32
tp33
a((F0.5
g6
g27
I150
I40
tp34
(F-134918.542426786
tp35
tp36
a((F0.5
g17
g7
I100
I20
tp37
(F-59951.91958982385
tp38
tp39
a((F0.5
g6
g7
I150
I20
tp40
(F-134918.54242683342
tp41
tp42
a((F0.3
g6
g2
I50
I80
tp43
(F-14989.556773909278
tp44
tp45
a((F0.5
g6
g7
I150
I20
tp46
(F-134918.54242683342
tp47
tp48
a((F0.5
g6
g27
I50
I20
tp49
(F-14990.26158468688
tp50
tp51
a((F0.5
g6
g7
I100
I40
tp52
(F-59951.91958981528
tp53
tp54
a((F0.5
g1
g2
I150
I20
tp55
(F-134918.5424268157
tp56
tp57
a((F0.1
g6
g27
I100
I20
tp58
(F-59951.919589815225
tp59
tp60
a((F0.5
g6
g27
I50
I20
tp61
(F-14990.26158468688
tp62
tp63
a((F0.1
g1
g7
I150
I40
tp64
(F-134918.54242678586
tp65
tp66
a((F0.1
g6
g7
I50
I20
tp67
(F-14992.707423130738
tp68
tp69
a((F0.3
g17
g7
I100
I40
tp70
(F-59951.919589815225
tp71
tp72
a((F0.5
g1
g27
I100
I20
tp73
(F-59931.22255147342
tp74
tp75
a((F0.1
g17
g7
I50
I40
tp76
(F-14990.261584639162
tp77
tp78
a((F0.1
g6
g7
I150
I40
tp79
(F-134877.1570711887
tp80
tp81
a((F0.3
g1
g2
I50
I40
tp82
(F-14992.707423130738
tp83
tp84
a((F0.3
g6
g27
I150
I80
tp85
(F-134918.54242678586
tp86
tp87
a((F0.3
g17
g7
I150
I80
tp88
(F-134891.30016016253
tp89
tp90
a((F0.5
g1
g27
I150
I80
tp91
(F-134918.54242678586
tp92
tp93
a((F0.5
g6
g2
I100
I20
tp94
(F-59951.91958984671
tp95
tp96
a((F0.3
g17
g2
I100
I40
tp97
(F-59927.506957321944
tp98
tp99
a((F0.1
g17
g7
I100
I40
tp100
(F-59951.919589815225
tp101
tp102
a((F0.5
g1
g2
I100
I40
tp103
(F-59935.8486154837
tp104
tp105
a((F0.3
g17
g7
I150
I40
tp106
(F-134854.24538042827
tp107
tp108
a((F0.3
g1
g2
I50
I20
tp109
(F-14989.556773909355
tp110
tp111
a((F0.3
g6
g7
I150
I80
tp112
(F-134918.54242678586
tp113
tp114
a((F0.1
g1
g27
I100
I40
tp115
(F-59935.848615483585
tp116
tp117
a((F0.5
g1
g27
I150
I20
tp118
(F-134918.5424270438
tp119
tp120
a((F0.1
g6
g2
I150
I80
tp121
(F-134918.54242678586
tp122
tp123
a((F0.5
g17
g27
I100
I40
tp124
(F-59935.84861548369
tp125
tp126
a((F0.1
g6
g7
I150
I20
tp127
(F-134918.54242678586
tp128
tp129
a((F0.1
g1
g27
I100
I80
tp130
(F-59935.848615483585
tp131
tp132
a((F0.5
g1
g7
I150
I20
tp133
(F-134891.30016074833
tp134
tp135
a((F0.5
g6
g7
I150
I40
tp136
(F-134891.30016016297
tp137
tp138
a((F0.3
g1
g27
I150
I80
tp139
(F-134883.4570253134
tp140
tp141
a((F0.3
g6
g2
I100
I20
tp142
(F-59935.84861548362
tp143
tp144
a((F0.5
g6
g27
I150
I80
tp145
(F-134918.54242678586
tp146
tp147
a((F0.3
g17
g7
I100
I40
tp148
(F-59951.919589815225
tp149
tp150
a((F0.1
g17
g7
I50
I20
tp151
(F-14990.261584639162
tp152
tp153
a((F0.5
g6
g27
I100
I40
tp154
(F-59951.919589815356
tp155
tp156
a.