(lp0
((F0.3
S'TwoPoint'
p1
S'continuousDominanceLoss'
p2
I50
I20
tp3
(F-14999.994036943564
tp4
tp5
a((F0.5
S'uniform'
p6
g2
I150
I80
tp7
(F-134999.93313157305
tp8
tp9
a((F0.1
g1
S'dominanceRank'
p10
I100
I40
tp11
(F-59999.98412733116
tp12
tp13
a((F0.3
S'singlePoint'
p14
g2
I50
I40
tp15
(F-14999.99403694356
tp16
tp17
a((F0.5
g1
S'dominanceCount'
p18
I100
I40
tp19
(F-59999.98412733116
tp20
tp21
a((F0.3
g14
g2
I100
I20
tp22
(F-59999.984127331176
tp23
tp24
a((F0.3
g1
g2
I150
I80
tp25
(F-134999.93313157305
tp26
tp27
a((F0.5
g6
g10
I100
I80
tp28
(F-59999.98412733116
tp29
tp30
a((F0.1
g14
g18
I150
I20
tp31
(F-134999.93313157305
tp32
tp33
a((F0.5
g1
g18
I150
I80
tp34
(F-134999.93313157305
tp35
tp36
a((F0.3
g6
g2
I150
I40
tp37
(F-134999.93313157305
tp38
tp39
a((F0.5
g6
g10
I100
I40
tp40
(F-59999.98412733116
tp41
tp42
a((F0.3
g14
g2
I100
I20
tp43
(F-59999.984127331176
tp44
tp45
a((F0.3
g14
g10
I150
I80
tp46
(F-134999.93313157305
tp47
tp48
a((F0.1
g6
g10
I100
I20
tp49
(F-59999.98412733116
tp50
tp51
a((F0.5
g1
g10
I150
I20
tp52
(F-134999.93313157305
tp53
tp54
a((F0.1
g14
g10
I150
I20
tp55
(F-134999.93313157305
tp56
tp57
a((F0.5
g1
g10
I100
I20
tp58
(F-59999.98412733116
tp59
tp60
a((F0.3
g1
g10
I50
I20
tp61
(F-14999.99403694356
tp62
tp63
a((F0.5
g1
g2
I100
I40
tp64
(F-59999.98412733116
tp65
tp66
a((F0.1
g1
g18
I100
I40
tp67
(F-59999.98412733116
tp68
tp69
a((F0.3
g6
g18
I100
I80
tp70
(F-59999.98412733116
tp71
tp72
a((F0.3
g14
g10
I50
I80
tp73
(F-14999.99403694356
tp74
tp75
a((F0.5
g1
g18
I150
I40
tp76
(F-134999.93313157305
tp77
tp78
a((F0.1
g6
g18
I150
I20
tp79
(F-134999.93313157305
tp80
tp81
a((F0.3
g1
g18
I100
I40
tp82
(F-59999.98412733116
tp83
tp84
a((F0.5
g14
g2
I150
I20
tp85
(F-134999.93313157305
tp86
tp87
a((F0.3
g14
g18
I150
I20
tp88
(F-134999.93313157305
tp89
tp90
a((F0.1
g1
g10
I100
I20
tp91
(F-59999.98412733116
tp92
tp93
a((F0.5
g14
g2
I100
I80
tp94
(F-59999.98412733116
tp95
tp96
a((F0.3
g1
g2
I100
I40
tp97
(F-59999.98412733116
tp98
tp99
a((F0.3
g6
g18
I100
I20
tp100
(F-59999.98412733116
tp101
tp102
a((F0.5
g14
g2
I50
I80
tp103
(F-14999.994036943563
tp104
tp105
a((F0.5
g14
g2
I150
I40
tp106
(F-134999.93313157305
tp107
tp108
a((F0.3
g6
g18
I150
I40
tp109
(F-134999.93313157305
tp110
tp111
a((F0.5
g6
g2
I100
I20
tp112
(F-59999.984127331176
tp113
tp114
a((F0.3
g6
g2
I100
I80
tp115
(F-59999.98412733116
tp116
tp117
a((F0.1
g14
g2
I150
I80
tp118
(F-134999.93313157305
tp119
tp120
a((F0.5
g14
g10
I100
I20
tp121
(F-59999.98412733116
tp122
tp123
a((F0.1
g1
g18
I150
I20
tp124
(F-134999.93313157305
tp125
tp126
a((F0.1
g1
g18
I150
I40
tp127
(F-134999.93313157305
tp128
tp129
a((F0.5
g14
g18
I150
I80
tp130
(F-134999.93313157305
tp131
tp132
a((F0.5
g1
g18
I50
I40
tp133
(F-14999.99403694356
tp134
tp135
a((F0.1
g1
g10
I50
I20
tp136
(F-14999.99403694356
tp137
tp138
a((F0.5
g6
g10
I150
I20
tp139
(F-134999.93313157305
tp140
tp141
a((F0.1
g6
g2
I150
I80
tp142
(F-134999.93313157305
tp143
tp144
a((F0.5
g6
g2
I100
I20
tp145
(F-59999.984127331176
tp146
tp147
a((F0.3
g14
g10
I100
I40
tp148
(F-59999.98412733116
tp149
tp150
a((F0.1
g6
g18
I150
I20
tp151
(F-134999.93313157305
tp152
tp153
a((F0.5
g6
g2
I100
I20
tp154
(F-59999.984127331176
tp155
tp156
a.