(lp0
((F0.3
S'singlePoint'
p1
S'continuousDominanceLoss'
p2
I50
I20
tp3
(F-4992.36849986435
tp4
tp5
a((F0.5
S'uniform'
p6
g2
I150
I80
tp7
(F-44827.35023533152
tp8
tp9
a((F0.5
g1
S'dominanceRank'
p10
I100
I20
tp11
(F-19946.564391365388
tp12
tp13
a((F0.1
g6
g10
I150
I40
tp14
(F-44827.35023533152
tp15
tp16
a((F0.1
S'TwoPoint'
p17
g2
I100
I80
tp18
(F-19959.019350791077
tp19
tp20
a((F0.5
g6
g10
I100
I80
tp21
(F-19949.527422119158
tp22
tp23
a((F0.3
g6
g10
I150
I80
tp24
(F-44827.35023533152
tp25
tp26
a((F0.3
g17
g10
I100
I80
tp27
(F-19956.98227917067
tp28
tp29
a((F0.1
g6
g10
I100
I40
tp30
(F-19959.019350791077
tp31
tp32
a((F0.1
g17
g2
I50
I80
tp33
(F-4991.98628493495
tp34
tp35
a((F0.5
g1
g10
I150
I40
tp36
(F-44827.350235331556
tp37
tp38
a((F0.5
g1
S'dominanceCount'
p39
I50
I40
tp40
(F-4992.368499863762
tp41
tp42
a((F0.5
g1
g10
I100
I80
tp43
(F-19959.019350791077
tp44
tp45
a((F0.5
g6
g39
I100
I40
tp46
(F-19956.982279170716
tp47
tp48
a((F0.5
g1
g10
I150
I20
tp49
(F-44827.350235519916
tp50
tp51
a((F0.3
g6
g10
I150
I40
tp52
(F-44776.70222012269
tp53
tp54
a((F0.1
g17
g39
I100
I20
tp55
(F-19956.98227917067
tp56
tp57
a((F0.5
g6
g10
I100
I20
tp58
(F-19956.982279198088
tp59
tp60
a((F0.5
g17
g10
I50
I20
tp61
(F-4991.986284952366
tp62
tp63
a((F0.1
g1
g10
I150
I40
tp64
(F-44788.6783967281
tp65
tp66
a((F0.5
g17
g10
I50
I40
tp67
(F-4991.986284935036
tp68
tp69
a((F0.5
g6
g2
I150
I20
tp70
(F-44827.35023539187
tp71
tp72
a((F0.1
g1
g2
I50
I20
tp73
(F-4992.368499863608
tp74
tp75
a((F0.5
g6
g39
I100
I80
tp76
(F-19959.019350791077
tp77
tp78
a((F0.3
g6
g2
I100
I40
tp79
(F-19956.98227917067
tp80
tp81
a((F0.1
g6
g39
I50
I40
tp82
(F-4992.368499863607
tp83
tp84
a((F0.3
g1
g2
I100
I80
tp85
(F-19946.564391283482
tp86
tp87
a((F0.3
g1
g10
I150
I40
tp88
(F-44827.350235331534
tp89
tp90
a((F0.3
g6
g10
I100
I80
tp91
(F-19959.019350791077
tp92
tp93
a((F0.1
g6
g39
I100
I20
tp94
(F-19956.98227917067
tp95
tp96
a((F0.3
g17
g2
I150
I20
tp97
(F-44827.350235332386
tp98
tp99
a((F0.3
g17
g2
I100
I40
tp100
(F-19959.01935079108
tp101
tp102
a((F0.3
g1
g2
I150
I20
tp103
(F-44827.35023533358
tp104
tp105
a((F0.3
g6
g39
I100
I20
tp106
(F-19959.019350791084
tp107
tp108
a((F0.1
g6
g39
I100
I40
tp109
(F-19959.019350791077
tp110
tp111
a((F0.1
g1
g10
I50
I20
tp112
(F-4991.986284934951
tp113
tp114
a((F0.3
g6
g39
I50
I80
tp115
(F-4992.368499863607
tp116
tp117
a((F0.5
g17
g2
I100
I40
tp118
(F-19946.5643912836
tp119
tp120
a((F0.5
g1
g10
I150
I20
tp121
(F-44827.350235519916
tp122
tp123
a((F0.3
g6
g2
I100
I80
tp124
(F-19959.019350791077
tp125
tp126
a((F0.1
g1
g2
I100
I80
tp127
(F-19949.527422119154
tp128
tp129
a((F0.5
g6
g10
I50
I20
tp130
(F-4991.986284938619
tp131
tp132
a((F0.3
g17
g10
I150
I20
tp133
(F-44819.01099063726
tp134
tp135
a((F0.5
g1
g39
I100
I40
tp136
(F-19946.564391283577
tp137
tp138
a((F0.3
g1
g2
I100
I20
tp139
(F-19959.019350791652
tp140
tp141
a((F0.1
g1
g2
I100
I20
tp142
(F-19956.982279170676
tp143
tp144
a((F0.3
g17
g39
I50
I20
tp145
(F-4992.368499863616
tp146
tp147
a((F0.1
g6
g10
I100
I80
tp148
(F-19946.564391283482
tp149
tp150
a((F0.3
g17
g39
I50
I80
tp151
(F-4992.368499863607
tp152
tp153
a((F0.5
g17
g39
I100
I20
tp154
(F-19959.0193508224
tp155
tp156
a.